
_Data_Eeprom_Write:

;TP_memory.c,66 :: 		void Data_Eeprom_Write(char * donnees)
;TP_memory.c,68 :: 		short indice=0;
	CLRF       Data_Eeprom_Write_indice_L0+0
;TP_memory.c,69 :: 		while(donnees[indice] != '\0')
L_Data_Eeprom_Write0:
	MOVF       Data_Eeprom_Write_indice_L0+0, 0
	ADDWF      FARG_Data_Eeprom_Write_donnees+0, 0
	MOVWF      FSR
	MOVF       INDF+0, 0
	XORLW      0
	BTFSC      STATUS+0, 2
	GOTO       L_Data_Eeprom_Write1
;TP_memory.c,71 :: 		EEPROM_Write(adresse+indice,donnees[indice]);
	MOVF       Data_Eeprom_Write_indice_L0+0, 0
	ADDWF      _adresse+0, 0
	MOVWF      FARG_EEPROM_Write_Address+0
	MOVF       Data_Eeprom_Write_indice_L0+0, 0
	ADDWF      FARG_Data_Eeprom_Write_donnees+0, 0
	MOVWF      FSR
	MOVF       INDF+0, 0
	MOVWF      FARG_EEPROM_Write_data_+0
	CALL       _EEPROM_Write+0
;TP_memory.c,72 :: 		++indice;
	INCF       Data_Eeprom_Write_indice_L0+0, 1
;TP_memory.c,73 :: 		}
	GOTO       L_Data_Eeprom_Write0
L_Data_Eeprom_Write1:
;TP_memory.c,74 :: 		adresse += indice;
	MOVF       Data_Eeprom_Write_indice_L0+0, 0
	ADDWF      _adresse+0, 1
	BTFSC      STATUS+0, 0
	INCF       _adresse+1, 1
	MOVLW      0
	BTFSC      Data_Eeprom_Write_indice_L0+0, 7
	MOVLW      255
	ADDWF      _adresse+1, 1
;TP_memory.c,75 :: 		}
	RETURN
; end of _Data_Eeprom_Write

_Data_Write:

;TP_memory.c,77 :: 		void Data_Write(char * lattitude, char * longitude)
;TP_memory.c,79 :: 		Data_Eeprom_Write(lattitude);
	MOVF       FARG_Data_Write_lattitude+0, 0
	MOVWF      FARG_Data_Eeprom_Write_donnees+0
	CALL       _Data_Eeprom_Write+0
;TP_memory.c,80 :: 		Data_Eeprom_Write(longitude);
	MOVF       FARG_Data_Write_longitude+0, 0
	MOVWF      FARG_Data_Eeprom_Write_donnees+0
	CALL       _Data_Eeprom_Write+0
;TP_memory.c,81 :: 		}
	RETURN
; end of _Data_Write

_Data_Eeprom_Read:

;TP_memory.c,83 :: 		char * Data_Eeprom_Read(int item)
;TP_memory.c,87 :: 		char address = 0;
	CLRF       Data_Eeprom_Read_address_L0+0
;TP_memory.c,88 :: 		address += (item*21);
	MOVF       FARG_Data_Eeprom_Read_item+0, 0
	MOVWF      R0+0
	MOVLW      21
	MOVWF      R4+0
	CALL       _Mul_8x8_U+0
	MOVF       R0+0, 0
	ADDWF      Data_Eeprom_Read_address_L0+0, 1
;TP_memory.c,90 :: 		for (indice = 0; indice < 21; ++indice)
	CLRF       Data_Eeprom_Read_indice_L0+0
	CLRF       Data_Eeprom_Read_indice_L0+1
L_Data_Eeprom_Read2:
	MOVLW      128
	XORWF      Data_Eeprom_Read_indice_L0+1, 0
	MOVWF      R0+0
	MOVLW      128
	SUBWF      R0+0, 0
	BTFSS      STATUS+0, 2
	GOTO       L__Data_Eeprom_Read64
	MOVLW      21
	SUBWF      Data_Eeprom_Read_indice_L0+0, 0
L__Data_Eeprom_Read64:
	BTFSC      STATUS+0, 0
	GOTO       L_Data_Eeprom_Read3
;TP_memory.c,92 :: 		donnees[indice]=EEPROM_Read(address+indice);
	MOVF       Data_Eeprom_Read_indice_L0+0, 0
	ADDLW      Data_Eeprom_Read_donnees_L0+0
	MOVWF      FLOC__Data_Eeprom_Read+0
	MOVF       Data_Eeprom_Read_indice_L0+0, 0
	ADDWF      Data_Eeprom_Read_address_L0+0, 0
	MOVWF      FARG_EEPROM_Read_Address+0
	CALL       _EEPROM_Read+0
	MOVF       FLOC__Data_Eeprom_Read+0, 0
	MOVWF      FSR
	MOVF       R0+0, 0
	MOVWF      INDF+0
;TP_memory.c,93 :: 		Delay_ms(250);
	MOVLW      3
	MOVWF      R11+0
	MOVLW      138
	MOVWF      R12+0
	MOVLW      85
	MOVWF      R13+0
L_Data_Eeprom_Read5:
	DECFSZ     R13+0, 1
	GOTO       L_Data_Eeprom_Read5
	DECFSZ     R12+0, 1
	GOTO       L_Data_Eeprom_Read5
	DECFSZ     R11+0, 1
	GOTO       L_Data_Eeprom_Read5
	NOP
	NOP
;TP_memory.c,90 :: 		for (indice = 0; indice < 21; ++indice)
	INCF       Data_Eeprom_Read_indice_L0+0, 1
	BTFSC      STATUS+0, 2
	INCF       Data_Eeprom_Read_indice_L0+1, 1
;TP_memory.c,94 :: 		}
	GOTO       L_Data_Eeprom_Read2
L_Data_Eeprom_Read3:
;TP_memory.c,95 :: 		donnees[21]='\0';
	CLRF       Data_Eeprom_Read_donnees_L0+21
;TP_memory.c,97 :: 		return donnees;
	MOVLW      Data_Eeprom_Read_donnees_L0+0
	MOVWF      R0+0
;TP_memory.c,98 :: 		}
	RETURN
; end of _Data_Eeprom_Read

_Data_I2C_EEPROM_Write:

;TP_memory.c,102 :: 		void Data_I2C_EEPROM_Write(char * donnees)
;TP_memory.c,104 :: 		short indice=0;
	CLRF       Data_I2C_EEPROM_Write_indice_L0+0
;TP_memory.c,106 :: 		while(donnees[indice] != '\0')
L_Data_I2C_EEPROM_Write6:
	MOVF       Data_I2C_EEPROM_Write_indice_L0+0, 0
	ADDWF      FARG_Data_I2C_EEPROM_Write_donnees+0, 0
	MOVWF      FSR
	MOVF       INDF+0, 0
	XORLW      0
	BTFSC      STATUS+0, 2
	GOTO       L_Data_I2C_EEPROM_Write7
;TP_memory.c,108 :: 		I2C1_Start();              // issue I2C start signal
	CALL       _I2C1_Start+0
;TP_memory.c,109 :: 		I2C1_Wr(0xA0);             // send byte via I2C  (device address + W)
	MOVLW      160
	MOVWF      FARG_I2C1_Wr_data_+0
	CALL       _I2C1_Wr+0
;TP_memory.c,110 :: 		I2C1_Wr(adresse+indice);          // send byte (address of EEPROM location)
	MOVF       Data_I2C_EEPROM_Write_indice_L0+0, 0
	ADDWF      _adresse+0, 0
	MOVWF      FARG_I2C1_Wr_data_+0
	CALL       _I2C1_Wr+0
;TP_memory.c,111 :: 		I2C1_Wr(donnees[indice]);        // send data (data to be written)
	MOVF       Data_I2C_EEPROM_Write_indice_L0+0, 0
	ADDWF      FARG_Data_I2C_EEPROM_Write_donnees+0, 0
	MOVWF      FSR
	MOVF       INDF+0, 0
	MOVWF      FARG_I2C1_Wr_data_+0
	CALL       _I2C1_Wr+0
;TP_memory.c,112 :: 		I2C1_Stop();               // issue I2C stop signal
	CALL       _I2C1_Stop+0
;TP_memory.c,113 :: 		Delay_ms(10);
	MOVLW      26
	MOVWF      R12+0
	MOVLW      248
	MOVWF      R13+0
L_Data_I2C_EEPROM_Write8:
	DECFSZ     R13+0, 1
	GOTO       L_Data_I2C_EEPROM_Write8
	DECFSZ     R12+0, 1
	GOTO       L_Data_I2C_EEPROM_Write8
	NOP
;TP_memory.c,114 :: 		++indice;
	INCF       Data_I2C_EEPROM_Write_indice_L0+0, 1
;TP_memory.c,115 :: 		}
	GOTO       L_Data_I2C_EEPROM_Write6
L_Data_I2C_EEPROM_Write7:
;TP_memory.c,116 :: 		adresse += indice;
	MOVF       Data_I2C_EEPROM_Write_indice_L0+0, 0
	ADDWF      _adresse+0, 1
	BTFSC      STATUS+0, 0
	INCF       _adresse+1, 1
	MOVLW      0
	BTFSC      Data_I2C_EEPROM_Write_indice_L0+0, 7
	MOVLW      255
	ADDWF      _adresse+1, 1
;TP_memory.c,117 :: 		}
	RETURN
; end of _Data_I2C_EEPROM_Write

_I2C_Data_Write:

;TP_memory.c,119 :: 		void I2C_Data_Write(char * lattitude, char * longitude)
;TP_memory.c,121 :: 		Data_I2C_EEPROM_Write(lattitude);
	MOVF       FARG_I2C_Data_Write_lattitude+0, 0
	MOVWF      FARG_Data_I2C_EEPROM_Write_donnees+0
	CALL       _Data_I2C_EEPROM_Write+0
;TP_memory.c,122 :: 		Data_I2C_EEPROM_Write(longitude);
	MOVF       FARG_I2C_Data_Write_longitude+0, 0
	MOVWF      FARG_Data_I2C_EEPROM_Write_donnees+0
	CALL       _Data_I2C_EEPROM_Write+0
;TP_memory.c,123 :: 		}
	RETURN
; end of _I2C_Data_Write

_Data_I2C_EEPROM_Read:

;TP_memory.c,125 :: 		char * Data_I2C_EEPROM_Read(int item)
;TP_memory.c,129 :: 		char address = 0;
	CLRF       Data_I2C_EEPROM_Read_address_L0+0
;TP_memory.c,132 :: 		address += (item*21);
	MOVF       FARG_Data_I2C_EEPROM_Read_item+0, 0
	MOVWF      R0+0
	MOVLW      21
	MOVWF      R4+0
	CALL       _Mul_8x8_U+0
	MOVF       R0+0, 0
	ADDWF      Data_I2C_EEPROM_Read_address_L0+0, 1
;TP_memory.c,134 :: 		for (indice = 0; indice < 21; ++indice)
	CLRF       Data_I2C_EEPROM_Read_indice_L0+0
	CLRF       Data_I2C_EEPROM_Read_indice_L0+1
L_Data_I2C_EEPROM_Read9:
	MOVLW      128
	XORWF      Data_I2C_EEPROM_Read_indice_L0+1, 0
	MOVWF      R0+0
	MOVLW      128
	SUBWF      R0+0, 0
	BTFSS      STATUS+0, 2
	GOTO       L__Data_I2C_EEPROM_Read65
	MOVLW      21
	SUBWF      Data_I2C_EEPROM_Read_indice_L0+0, 0
L__Data_I2C_EEPROM_Read65:
	BTFSC      STATUS+0, 0
	GOTO       L_Data_I2C_EEPROM_Read10
;TP_memory.c,136 :: 		I2C1_Start();              // issue I2C start signal
	CALL       _I2C1_Start+0
;TP_memory.c,137 :: 		I2C1_Wr(0xA0);             // send byte via I2C  (device address + W)
	MOVLW      160
	MOVWF      FARG_I2C1_Wr_data_+0
	CALL       _I2C1_Wr+0
;TP_memory.c,138 :: 		I2C1_Wr(address+indice);          // send byte (data address)
	MOVF       Data_I2C_EEPROM_Read_indice_L0+0, 0
	ADDWF      Data_I2C_EEPROM_Read_address_L0+0, 0
	MOVWF      FARG_I2C1_Wr_data_+0
	CALL       _I2C1_Wr+0
;TP_memory.c,139 :: 		I2C1_Repeated_Start();     // issue I2C signal repeated start
	CALL       _I2C1_Repeated_Start+0
;TP_memory.c,140 :: 		I2C1_Wr(0xA1);             // send byte (device address + R)
	MOVLW      161
	MOVWF      FARG_I2C1_Wr_data_+0
	CALL       _I2C1_Wr+0
;TP_memory.c,141 :: 		car = I2C1_Rd(0u);         // Read the data (NO acknowledge)
	CLRF       FARG_I2C1_Rd_ack+0
	CALL       _I2C1_Rd+0
	MOVF       R0+0, 0
	MOVWF      Data_I2C_EEPROM_Read_car_L0+0
;TP_memory.c,142 :: 		I2C1_Stop();               // issue I2C stop signal
	CALL       _I2C1_Stop+0
;TP_memory.c,143 :: 		Delay_ms(10);
	MOVLW      26
	MOVWF      R12+0
	MOVLW      248
	MOVWF      R13+0
L_Data_I2C_EEPROM_Read12:
	DECFSZ     R13+0, 1
	GOTO       L_Data_I2C_EEPROM_Read12
	DECFSZ     R12+0, 1
	GOTO       L_Data_I2C_EEPROM_Read12
	NOP
;TP_memory.c,144 :: 		donnees[indice]=car;
	MOVF       Data_I2C_EEPROM_Read_indice_L0+0, 0
	ADDLW      Data_I2C_EEPROM_Read_donnees_L0+0
	MOVWF      FSR
	MOVF       Data_I2C_EEPROM_Read_car_L0+0, 0
	MOVWF      INDF+0
;TP_memory.c,134 :: 		for (indice = 0; indice < 21; ++indice)
	INCF       Data_I2C_EEPROM_Read_indice_L0+0, 1
	BTFSC      STATUS+0, 2
	INCF       Data_I2C_EEPROM_Read_indice_L0+1, 1
;TP_memory.c,145 :: 		}
	GOTO       L_Data_I2C_EEPROM_Read9
L_Data_I2C_EEPROM_Read10:
;TP_memory.c,146 :: 		donnees[21]='\0';
	CLRF       Data_I2C_EEPROM_Read_donnees_L0+21
;TP_memory.c,148 :: 		return donnees;
	MOVLW      Data_I2C_EEPROM_Read_donnees_L0+0
	MOVWF      R0+0
;TP_memory.c,149 :: 		}
	RETURN
; end of _Data_I2C_EEPROM_Read

_Data_I2C_24LC32A_EEPROM_Write:

;TP_memory.c,153 :: 		void Data_I2C_24LC32A_EEPROM_Write(char * donnees)
;TP_memory.c,155 :: 		unsigned short indice=0;
	CLRF       Data_I2C_24LC32A_EEPROM_Write_indice_L0+0
;TP_memory.c,160 :: 		while(donnees[indice] != '\0')
L_Data_I2C_24LC32A_EEPROM_Write13:
	MOVF       Data_I2C_24LC32A_EEPROM_Write_indice_L0+0, 0
	ADDWF      FARG_Data_I2C_24LC32A_EEPROM_Write_donnees+0, 0
	MOVWF      FSR
	MOVF       INDF+0, 0
	XORLW      0
	BTFSC      STATUS+0, 2
	GOTO       L_Data_I2C_24LC32A_EEPROM_Write14
;TP_memory.c,162 :: 		address = adresse+indice;
	MOVF       Data_I2C_24LC32A_EEPROM_Write_indice_L0+0, 0
	ADDWF      _adresse+0, 0
	MOVWF      R3+0
	MOVF       _adresse+1, 0
	BTFSC      STATUS+0, 0
	ADDLW      1
	MOVWF      R3+1
;TP_memory.c,164 :: 		low_address = address & 0x00FF;
	MOVLW      255
	ANDWF      R3+0, 0
	MOVWF      Data_I2C_24LC32A_EEPROM_Write_low_address_L0+0
;TP_memory.c,165 :: 		high_address = (address >> 8) & 0x00FF;
	MOVF       R3+1, 0
	MOVWF      R0+0
	CLRF       R0+1
	MOVLW      255
	ANDWF      R0+0, 0
	MOVWF      Data_I2C_24LC32A_EEPROM_Write_high_address_L0+0
;TP_memory.c,167 :: 		I2C1_Start();              // issue I2C start signal
	CALL       _I2C1_Start+0
;TP_memory.c,168 :: 		I2C1_Wr(0xAE);             // send byte via I2C  (device address + W)
	MOVLW      174
	MOVWF      FARG_I2C1_Wr_data_+0
	CALL       _I2C1_Wr+0
;TP_memory.c,169 :: 		I2C1_Wr(high_address);   // send byte (address of EEPROM location)
	MOVF       Data_I2C_24LC32A_EEPROM_Write_high_address_L0+0, 0
	MOVWF      FARG_I2C1_Wr_data_+0
	CALL       _I2C1_Wr+0
;TP_memory.c,170 :: 		I2C1_Wr(low_address);   // send byte (address of EEPROM location)
	MOVF       Data_I2C_24LC32A_EEPROM_Write_low_address_L0+0, 0
	MOVWF      FARG_I2C1_Wr_data_+0
	CALL       _I2C1_Wr+0
;TP_memory.c,171 :: 		I2C1_Wr(donnees[indice]);  // send data (data to be written)
	MOVF       Data_I2C_24LC32A_EEPROM_Write_indice_L0+0, 0
	ADDWF      FARG_Data_I2C_24LC32A_EEPROM_Write_donnees+0, 0
	MOVWF      FSR
	MOVF       INDF+0, 0
	MOVWF      FARG_I2C1_Wr_data_+0
	CALL       _I2C1_Wr+0
;TP_memory.c,172 :: 		I2C1_Stop();               // issue I2C stop signal
	CALL       _I2C1_Stop+0
;TP_memory.c,173 :: 		Delay_ms(10);
	MOVLW      26
	MOVWF      R12+0
	MOVLW      248
	MOVWF      R13+0
L_Data_I2C_24LC32A_EEPROM_Write15:
	DECFSZ     R13+0, 1
	GOTO       L_Data_I2C_24LC32A_EEPROM_Write15
	DECFSZ     R12+0, 1
	GOTO       L_Data_I2C_24LC32A_EEPROM_Write15
	NOP
;TP_memory.c,174 :: 		++indice;
	INCF       Data_I2C_24LC32A_EEPROM_Write_indice_L0+0, 1
;TP_memory.c,175 :: 		}
	GOTO       L_Data_I2C_24LC32A_EEPROM_Write13
L_Data_I2C_24LC32A_EEPROM_Write14:
;TP_memory.c,176 :: 		adresse += indice;
	MOVF       Data_I2C_24LC32A_EEPROM_Write_indice_L0+0, 0
	ADDWF      _adresse+0, 1
	BTFSC      STATUS+0, 0
	INCF       _adresse+1, 1
;TP_memory.c,177 :: 		}
	RETURN
; end of _Data_I2C_24LC32A_EEPROM_Write

_I2C_24LC32A_Data_Write:

;TP_memory.c,179 :: 		void I2C_24LC32A_Data_Write(char * lattitude, char * longitude)
;TP_memory.c,181 :: 		Data_I2C_24LC32A_EEPROM_Write(lattitude);
	MOVF       FARG_I2C_24LC32A_Data_Write_lattitude+0, 0
	MOVWF      FARG_Data_I2C_24LC32A_EEPROM_Write_donnees+0
	CALL       _Data_I2C_24LC32A_EEPROM_Write+0
;TP_memory.c,182 :: 		Data_I2C_24LC32A_EEPROM_Write(longitude);
	MOVF       FARG_I2C_24LC32A_Data_Write_longitude+0, 0
	MOVWF      FARG_Data_I2C_24LC32A_EEPROM_Write_donnees+0
	CALL       _Data_I2C_24LC32A_EEPROM_Write+0
;TP_memory.c,183 :: 		}
	RETURN
; end of _I2C_24LC32A_Data_Write

_Data_I2C_24LC32A_EEPROM_Read:

;TP_memory.c,185 :: 		char * Data_I2C_24LC32A_EEPROM_Read(unsigned int item)
;TP_memory.c,189 :: 		unsigned int address = 0;
	CLRF       Data_I2C_24LC32A_EEPROM_Read_address_L0+0
	CLRF       Data_I2C_24LC32A_EEPROM_Read_address_L0+1
;TP_memory.c,194 :: 		address += (item*21);
	MOVF       FARG_Data_I2C_24LC32A_EEPROM_Read_item+0, 0
	MOVWF      R0+0
	MOVF       FARG_Data_I2C_24LC32A_EEPROM_Read_item+1, 0
	MOVWF      R0+1
	MOVLW      21
	MOVWF      R4+0
	MOVLW      0
	MOVWF      R4+1
	CALL       _Mul_16x16_U+0
	MOVF       R0+0, 0
	ADDWF      Data_I2C_24LC32A_EEPROM_Read_address_L0+0, 1
	MOVF       R0+1, 0
	BTFSC      STATUS+0, 0
	ADDLW      1
	ADDWF      Data_I2C_24LC32A_EEPROM_Read_address_L0+1, 1
;TP_memory.c,196 :: 		for (indice = 0; indice < 21; ++indice)
	CLRF       Data_I2C_24LC32A_EEPROM_Read_indice_L0+0
L_Data_I2C_24LC32A_EEPROM_Read16:
	MOVLW      21
	SUBWF      Data_I2C_24LC32A_EEPROM_Read_indice_L0+0, 0
	BTFSC      STATUS+0, 0
	GOTO       L_Data_I2C_24LC32A_EEPROM_Read17
;TP_memory.c,198 :: 		low_address = address & 0x00FF;
	MOVLW      255
	ANDWF      Data_I2C_24LC32A_EEPROM_Read_address_L0+0, 0
	MOVWF      Data_I2C_24LC32A_EEPROM_Read_low_address_L0+0
;TP_memory.c,199 :: 		high_address = (address >> 8) & 0x00FF;
	MOVF       Data_I2C_24LC32A_EEPROM_Read_address_L0+1, 0
	MOVWF      R0+0
	CLRF       R0+1
	MOVLW      255
	ANDWF      R0+0, 0
	MOVWF      Data_I2C_24LC32A_EEPROM_Read_high_address_L0+0
;TP_memory.c,201 :: 		I2C1_Start();              // issue I2C start signal
	CALL       _I2C1_Start+0
;TP_memory.c,202 :: 		I2C1_Wr(0xAE);             // send byte via I2C  (device address + W)
	MOVLW      174
	MOVWF      FARG_I2C1_Wr_data_+0
	CALL       _I2C1_Wr+0
;TP_memory.c,203 :: 		I2C1_Wr(high_address);     // send byte (data address)
	MOVF       Data_I2C_24LC32A_EEPROM_Read_high_address_L0+0, 0
	MOVWF      FARG_I2C1_Wr_data_+0
	CALL       _I2C1_Wr+0
;TP_memory.c,204 :: 		I2C1_Wr(low_address);      // send byte (data address)
	MOVF       Data_I2C_24LC32A_EEPROM_Read_low_address_L0+0, 0
	MOVWF      FARG_I2C1_Wr_data_+0
	CALL       _I2C1_Wr+0
;TP_memory.c,205 :: 		I2C1_Repeated_Start();     // issue I2C signal repeated start
	CALL       _I2C1_Repeated_Start+0
;TP_memory.c,206 :: 		I2C1_Wr(0xAF);             // send byte (device address + R)
	MOVLW      175
	MOVWF      FARG_I2C1_Wr_data_+0
	CALL       _I2C1_Wr+0
;TP_memory.c,207 :: 		car = I2C1_Rd(0u);         // Read the data (NO acknowledge)
	CLRF       FARG_I2C1_Rd_ack+0
	CALL       _I2C1_Rd+0
	MOVF       R0+0, 0
	MOVWF      Data_I2C_24LC32A_EEPROM_Read_car_L0+0
;TP_memory.c,208 :: 		I2C1_Stop();               // issue I2C stop signal
	CALL       _I2C1_Stop+0
;TP_memory.c,209 :: 		Delay_ms(10);
	MOVLW      26
	MOVWF      R12+0
	MOVLW      248
	MOVWF      R13+0
L_Data_I2C_24LC32A_EEPROM_Read19:
	DECFSZ     R13+0, 1
	GOTO       L_Data_I2C_24LC32A_EEPROM_Read19
	DECFSZ     R12+0, 1
	GOTO       L_Data_I2C_24LC32A_EEPROM_Read19
	NOP
;TP_memory.c,210 :: 		donnees[indice]=car;
	MOVF       Data_I2C_24LC32A_EEPROM_Read_indice_L0+0, 0
	ADDLW      Data_I2C_24LC32A_EEPROM_Read_donnees_L0+0
	MOVWF      FSR
	MOVF       Data_I2C_24LC32A_EEPROM_Read_car_L0+0, 0
	MOVWF      INDF+0
;TP_memory.c,212 :: 		address += 1;
	INCF       Data_I2C_24LC32A_EEPROM_Read_address_L0+0, 1
	BTFSC      STATUS+0, 2
	INCF       Data_I2C_24LC32A_EEPROM_Read_address_L0+1, 1
;TP_memory.c,196 :: 		for (indice = 0; indice < 21; ++indice)
	INCF       Data_I2C_24LC32A_EEPROM_Read_indice_L0+0, 1
;TP_memory.c,213 :: 		}
	GOTO       L_Data_I2C_24LC32A_EEPROM_Read16
L_Data_I2C_24LC32A_EEPROM_Read17:
;TP_memory.c,214 :: 		donnees[21]='\0';
	CLRF       Data_I2C_24LC32A_EEPROM_Read_donnees_L0+21
;TP_memory.c,216 :: 		return donnees;
	MOVLW      Data_I2C_24LC32A_EEPROM_Read_donnees_L0+0
	MOVWF      R0+0
;TP_memory.c,217 :: 		}
	RETURN
; end of _Data_I2C_24LC32A_EEPROM_Read

_startAndStopButtonAction:

;TP_memory.c,221 :: 		void startAndStopButtonAction()
;TP_memory.c,223 :: 		UART1_Write_Text("Start or stop\n");
	MOVLW      ?lstr1_TP_memory+0
	MOVWF      FARG_UART1_Write_Text_uart_text+0
	CALL       _UART1_Write_Text+0
;TP_memory.c,224 :: 		listen = ~listen;
	MOVLW
	XORWF      _listen+0, 1
;TP_memory.c,225 :: 		pause = 0;
	CLRF       _pause+0
	CLRF       _pause+1
;TP_memory.c,226 :: 		startAndStopButtonFlag = 0;
	BCF        _startAndStopButtonFlag+0, BitPos(_startAndStopButtonFlag+0)
;TP_memory.c,227 :: 		}
	RETURN
; end of _startAndStopButtonAction

_sendButtonAction:

;TP_memory.c,229 :: 		void sendButtonAction()
;TP_memory.c,233 :: 		lastItem = adresse / 21;
	MOVLW      21
	MOVWF      R4+0
	MOVLW      0
	MOVWF      R4+1
	MOVF       _adresse+0, 0
	MOVWF      R0+0
	MOVF       _adresse+1, 0
	MOVWF      R0+1
	CALL       _Div_16x16_U+0
	MOVF       R0+0, 0
	MOVWF      sendButtonAction_lastItem_L0+0
	MOVF       R0+1, 0
	MOVWF      sendButtonAction_lastItem_L0+1
;TP_memory.c,234 :: 		UART1_Write_Text("Send\n");
	MOVLW      ?lstr2_TP_memory+0
	MOVWF      FARG_UART1_Write_Text_uart_text+0
	CALL       _UART1_Write_Text+0
;TP_memory.c,236 :: 		for (i = 0 ; i < lastItem ; ++i)
	CLRF       sendButtonAction_i_L0+0
	CLRF       sendButtonAction_i_L0+1
L_sendButtonAction20:
	MOVF       sendButtonAction_lastItem_L0+1, 0
	SUBWF      sendButtonAction_i_L0+1, 0
	BTFSS      STATUS+0, 2
	GOTO       L__sendButtonAction66
	MOVF       sendButtonAction_lastItem_L0+0, 0
	SUBWF      sendButtonAction_i_L0+0, 0
L__sendButtonAction66:
	BTFSC      STATUS+0, 0
	GOTO       L_sendButtonAction21
;TP_memory.c,238 :: 		UART1_Write_Text(Data_I2C_24LC32A_EEPROM_Read(i));
	MOVF       sendButtonAction_i_L0+0, 0
	MOVWF      FARG_Data_I2C_24LC32A_EEPROM_Read_item+0
	MOVF       sendButtonAction_i_L0+1, 0
	MOVWF      FARG_Data_I2C_24LC32A_EEPROM_Read_item+1
	CALL       _Data_I2C_24LC32A_EEPROM_Read+0
	MOVF       R0+0, 0
	MOVWF      FARG_UART1_Write_Text_uart_text+0
	CALL       _UART1_Write_Text+0
;TP_memory.c,236 :: 		for (i = 0 ; i < lastItem ; ++i)
	INCF       sendButtonAction_i_L0+0, 1
	BTFSC      STATUS+0, 2
	INCF       sendButtonAction_i_L0+1, 1
;TP_memory.c,239 :: 		}
	GOTO       L_sendButtonAction20
L_sendButtonAction21:
;TP_memory.c,241 :: 		sendButtonFlag = 0;
	BCF        _sendButtonFlag+0, BitPos(_sendButtonFlag+0)
;TP_memory.c,242 :: 		}
	RETURN
; end of _sendButtonAction

_interrupt_configuration:

;TP_memory.c,246 :: 		void interrupt_configuration()
;TP_memory.c,248 :: 		PORTB=0;
	CLRF       PORTB+0
;TP_memory.c,249 :: 		TRISB = 0xF0; // Initialisation du port B en entree pour RB7, RB6, RB5 et RB4
	MOVLW      240
	MOVWF      TRISB+0
;TP_memory.c,251 :: 		INTCON.RBIE=1;     // Autorise l'IT du RB
	BSF        INTCON+0, 3
;TP_memory.c,252 :: 		INTCON.GIE=1;      // Autorisation generale des IT
	BSF        INTCON+0, 7
;TP_memory.c,253 :: 		INTCON.RBIF=0; 	   // Efface le flag d'IT sur RB cf p20 datasheet du 16F877A
	BCF        INTCON+0, 0
;TP_memory.c,255 :: 		startAndStopButtonFlag = 0;
	BCF        _startAndStopButtonFlag+0, BitPos(_startAndStopButtonFlag+0)
;TP_memory.c,256 :: 		sendButtonFlag = 0;
	BCF        _sendButtonFlag+0, BitPos(_sendButtonFlag+0)
;TP_memory.c,257 :: 		}
	RETURN
; end of _interrupt_configuration

_interrupt:
	MOVWF      R15+0
	SWAPF      STATUS+0, 0
	CLRF       STATUS+0
	MOVWF      ___saveSTATUS+0
	MOVF       PCLATH+0, 0
	MOVWF      ___savePCLATH+0
	CLRF       PCLATH+0

;TP_memory.c,259 :: 		void interrupt()
;TP_memory.c,263 :: 		if (intcon.RBIF == 1)  //Au moins une des entrées RB7 à RB4 a changé d'état
	BTFSS      INTCON+0, 0
	GOTO       L_interrupt23
;TP_memory.c,265 :: 		portbValue = PORTB;
	MOVF       PORTB+0, 0
	MOVWF      R1+0
;TP_memory.c,267 :: 		if (portbValue == 0x80)    // RB7 appuyé
	MOVF       R1+0, 0
	XORLW      128
	BTFSS      STATUS+0, 2
	GOTO       L_interrupt24
;TP_memory.c,269 :: 		startAndStopButtonFlag = 1;
	BSF        _startAndStopButtonFlag+0, BitPos(_startAndStopButtonFlag+0)
;TP_memory.c,270 :: 		}
	GOTO       L_interrupt25
L_interrupt24:
;TP_memory.c,271 :: 		else if (portbValue == 0x40)     // RB6 appuyé
	MOVF       R1+0, 0
	XORLW      64
	BTFSS      STATUS+0, 2
	GOTO       L_interrupt26
;TP_memory.c,273 :: 		sendButtonFlag  = 1;
	BSF        _sendButtonFlag+0, BitPos(_sendButtonFlag+0)
;TP_memory.c,274 :: 		}
L_interrupt26:
L_interrupt25:
;TP_memory.c,275 :: 		}
L_interrupt23:
;TP_memory.c,276 :: 		INTCON.RBIF=0; // Efface le flag d'IT sur RB
	BCF        INTCON+0, 0
;TP_memory.c,278 :: 		}
L__interrupt67:
	MOVF       ___savePCLATH+0, 0
	MOVWF      PCLATH+0
	SWAPF      ___saveSTATUS+0, 0
	MOVWF      STATUS+0
	SWAPF      R15+0, 1
	SWAPF      R15+0, 0
	RETFIE
; end of _interrupt

_main:

;TP_memory.c,282 :: 		void main()
;TP_memory.c,284 :: 		char good_trame = 0;
	CLRF       main_good_trame_L0+0
	CLRF       main_g_counter_L0+0
;TP_memory.c,288 :: 		UART1_Init(9600);               // Initialize UART module at 9600 bps
	MOVLW      51
	MOVWF      SPBRG+0
	BSF        TXSTA+0, 2
	CALL       _UART1_Init+0
;TP_memory.c,289 :: 		Delay_ms(100);                  // Wait for UART module to stabilize
	MOVLW      2
	MOVWF      R11+0
	MOVLW      4
	MOVWF      R12+0
	MOVLW      186
	MOVWF      R13+0
L_main27:
	DECFSZ     R13+0, 1
	GOTO       L_main27
	DECFSZ     R12+0, 1
	GOTO       L_main27
	DECFSZ     R11+0, 1
	GOTO       L_main27
	NOP
;TP_memory.c,290 :: 		Lcd_Init();                        // Initialize LCD
	CALL       _Lcd_Init+0
;TP_memory.c,292 :: 		Lcd_Cmd(_LCD_CLEAR);               // Clear display
	MOVLW      1
	MOVWF      FARG_Lcd_Cmd_out_char+0
	CALL       _Lcd_Cmd+0
;TP_memory.c,293 :: 		Lcd_Cmd(_LCD_CURSOR_OFF);          // Cursor off
	MOVLW      12
	MOVWF      FARG_Lcd_Cmd_out_char+0
	CALL       _Lcd_Cmd+0
;TP_memory.c,295 :: 		counter = 0;
	CLRF       _counter+0
	CLRF       _counter+1
;TP_memory.c,296 :: 		pause = 0;
	CLRF       _pause+0
	CLRF       _pause+1
;TP_memory.c,297 :: 		listen = 0;
	BCF        _listen+0, BitPos(_listen+0)
;TP_memory.c,299 :: 		I2C1_Init(100000);         // initialize I2C communication
	MOVLW      20
	MOVWF      SSPADD+0
	CALL       _I2C1_Init+0
;TP_memory.c,301 :: 		interrupt_configuration();
	CALL       _interrupt_configuration+0
;TP_memory.c,303 :: 		UART1_Write_Text("Start\n");
	MOVLW      ?lstr3_TP_memory+0
	MOVWF      FARG_UART1_Write_Text_uart_text+0
	CALL       _UART1_Write_Text+0
;TP_memory.c,305 :: 		while (1)
L_main28:
;TP_memory.c,307 :: 		if (startAndStopButtonFlag) startAndStopButtonAction();
	BTFSS      _startAndStopButtonFlag+0, BitPos(_startAndStopButtonFlag+0)
	GOTO       L_main30
	CALL       _startAndStopButtonAction+0
L_main30:
;TP_memory.c,308 :: 		if (sendButtonFlag) sendButtonAction();
	BTFSS      _sendButtonFlag+0, BitPos(_sendButtonFlag+0)
	GOTO       L_main31
	CALL       _sendButtonAction+0
L_main31:
;TP_memory.c,310 :: 		if (pause > 0)
	MOVF       _pause+1, 0
	SUBLW      0
	BTFSS      STATUS+0, 2
	GOTO       L__main68
	MOVF       _pause+0, 0
	SUBLW      0
L__main68:
	BTFSC      STATUS+0, 0
	GOTO       L_main32
;TP_memory.c,312 :: 		delay_ms(1000);
	MOVLW      11
	MOVWF      R11+0
	MOVLW      38
	MOVWF      R12+0
	MOVLW      93
	MOVWF      R13+0
L_main33:
	DECFSZ     R13+0, 1
	GOTO       L_main33
	DECFSZ     R12+0, 1
	GOTO       L_main33
	DECFSZ     R11+0, 1
	GOTO       L_main33
	NOP
	NOP
;TP_memory.c,313 :: 		--pause;
	MOVLW      1
	SUBWF      _pause+0, 1
	BTFSS      STATUS+0, 0
	DECF       _pause+1, 1
;TP_memory.c,314 :: 		}
L_main32:
;TP_memory.c,316 :: 		if (listen && pause == 0)
	BTFSS      _listen+0, BitPos(_listen+0)
	GOTO       L_main36
	MOVLW      0
	XORWF      _pause+1, 0
	BTFSS      STATUS+0, 2
	GOTO       L__main69
	MOVLW      0
	XORWF      _pause+0, 0
L__main69:
	BTFSS      STATUS+0, 2
	GOTO       L_main36
L__main63:
;TP_memory.c,319 :: 		if (UART1_Data_Ready())      // If data is received,
	CALL       _UART1_Data_Ready+0
	MOVF       R0+0, 0
	BTFSC      STATUS+0, 2
	GOTO       L_main37
;TP_memory.c,321 :: 		uart_rd = UART1_Read();     // read the received data,
	CALL       _UART1_Read+0
	MOVF       R0+0, 0
	MOVWF      _uart_rd+0
;TP_memory.c,323 :: 		if (uart_rd == '$')         // if we read a gps frame
	MOVF       R0+0, 0
	XORLW      36
	BTFSS      STATUS+0, 2
	GOTO       L_main38
;TP_memory.c,325 :: 		counter = 0;          // counter initialization
	CLRF       _counter+0
	CLRF       _counter+1
;TP_memory.c,326 :: 		lattitude_ptr = 0;
	CLRF       _lattitude_ptr+0
	CLRF       _lattitude_ptr+1
;TP_memory.c,327 :: 		longitude_ptr = 0;
	CLRF       _longitude_ptr+0
	CLRF       _longitude_ptr+1
;TP_memory.c,328 :: 		g_counter = 0;
	CLRF       main_g_counter_L0+0
;TP_memory.c,329 :: 		good_trame = 0;
	CLRF       main_good_trame_L0+0
;TP_memory.c,330 :: 		}
L_main38:
;TP_memory.c,332 :: 		if( uart_rd == 'G')
	MOVF       _uart_rd+0, 0
	XORLW      71
	BTFSS      STATUS+0, 2
	GOTO       L_main39
;TP_memory.c,334 :: 		++g_counter;
	INCF       main_g_counter_L0+0, 1
;TP_memory.c,335 :: 		}
L_main39:
;TP_memory.c,337 :: 		if (g_counter == 3 && counter == 0)
	MOVF       main_g_counter_L0+0, 0
	XORLW      3
	BTFSS      STATUS+0, 2
	GOTO       L_main42
	MOVLW      0
	XORWF      _counter+1, 0
	BTFSS      STATUS+0, 2
	GOTO       L__main70
	MOVLW      0
	XORWF      _counter+0, 0
L__main70:
	BTFSS      STATUS+0, 2
	GOTO       L_main42
L__main62:
;TP_memory.c,339 :: 		good_trame = 1;
	MOVLW      1
	MOVWF      main_good_trame_L0+0
;TP_memory.c,340 :: 		}
L_main42:
;TP_memory.c,342 :: 		if (uart_rd == ',')        // word separation symbole
	MOVF       _uart_rd+0, 0
	XORLW      44
	BTFSS      STATUS+0, 2
	GOTO       L_main43
;TP_memory.c,344 :: 		++counter;
	INCF       _counter+0, 1
	BTFSC      STATUS+0, 2
	INCF       _counter+1, 1
;TP_memory.c,345 :: 		}
L_main43:
;TP_memory.c,347 :: 		if (good_trame)
	MOVF       main_good_trame_L0+0, 0
	BTFSC      STATUS+0, 2
	GOTO       L_main44
;TP_memory.c,350 :: 		if (counter == 2 && uart_rd != ',')      // lattitude data
	MOVLW      0
	XORWF      _counter+1, 0
	BTFSS      STATUS+0, 2
	GOTO       L__main71
	MOVLW      2
	XORWF      _counter+0, 0
L__main71:
	BTFSS      STATUS+0, 2
	GOTO       L_main47
	MOVF       _uart_rd+0, 0
	XORLW      44
	BTFSC      STATUS+0, 2
	GOTO       L_main47
L__main61:
;TP_memory.c,352 :: 		lattitude[lattitude_ptr++] = uart_rd;
	MOVF       _lattitude_ptr+0, 0
	ADDLW      _lattitude+0
	MOVWF      FSR
	MOVF       _uart_rd+0, 0
	MOVWF      INDF+0
	INCF       _lattitude_ptr+0, 1
	BTFSC      STATUS+0, 2
	INCF       _lattitude_ptr+1, 1
;TP_memory.c,353 :: 		}
L_main47:
;TP_memory.c,355 :: 		if (counter == 3 && uart_rd != ',')      // lattitude hemisphere indicator (N or S)
	MOVLW      0
	XORWF      _counter+1, 0
	BTFSS      STATUS+0, 2
	GOTO       L__main72
	MOVLW      3
	XORWF      _counter+0, 0
L__main72:
	BTFSS      STATUS+0, 2
	GOTO       L_main50
	MOVF       _uart_rd+0, 0
	XORLW      44
	BTFSC      STATUS+0, 2
	GOTO       L_main50
L__main60:
;TP_memory.c,357 :: 		lattitude[lattitude_ptr++] = uart_rd;
	MOVF       _lattitude_ptr+0, 0
	ADDLW      _lattitude+0
	MOVWF      FSR
	MOVF       _uart_rd+0, 0
	MOVWF      INDF+0
	INCF       _lattitude_ptr+0, 1
	BTFSC      STATUS+0, 2
	INCF       _lattitude_ptr+1, 1
;TP_memory.c,358 :: 		lattitude[lattitude_ptr++] = '\0';
	MOVF       _lattitude_ptr+0, 0
	ADDLW      _lattitude+0
	MOVWF      FSR
	CLRF       INDF+0
	INCF       _lattitude_ptr+0, 1
	BTFSC      STATUS+0, 2
	INCF       _lattitude_ptr+1, 1
;TP_memory.c,359 :: 		}
L_main50:
;TP_memory.c,361 :: 		if (counter == 4 && uart_rd != ',')      // longitude data
	MOVLW      0
	XORWF      _counter+1, 0
	BTFSS      STATUS+0, 2
	GOTO       L__main73
	MOVLW      4
	XORWF      _counter+0, 0
L__main73:
	BTFSS      STATUS+0, 2
	GOTO       L_main53
	MOVF       _uart_rd+0, 0
	XORLW      44
	BTFSC      STATUS+0, 2
	GOTO       L_main53
L__main59:
;TP_memory.c,363 :: 		longitude[longitude_ptr++] = uart_rd;
	MOVF       _longitude_ptr+0, 0
	ADDLW      _longitude+0
	MOVWF      FSR
	MOVF       _uart_rd+0, 0
	MOVWF      INDF+0
	INCF       _longitude_ptr+0, 1
	BTFSC      STATUS+0, 2
	INCF       _longitude_ptr+1, 1
;TP_memory.c,364 :: 		}
L_main53:
;TP_memory.c,366 :: 		if (counter == 5 && uart_rd != ',')      //   longitude hemisphere indicator (E or W)
	MOVLW      0
	XORWF      _counter+1, 0
	BTFSS      STATUS+0, 2
	GOTO       L__main74
	MOVLW      5
	XORWF      _counter+0, 0
L__main74:
	BTFSS      STATUS+0, 2
	GOTO       L_main56
	MOVF       _uart_rd+0, 0
	XORLW      44
	BTFSC      STATUS+0, 2
	GOTO       L_main56
L__main58:
;TP_memory.c,368 :: 		longitude[longitude_ptr++] = uart_rd;
	MOVF       _longitude_ptr+0, 0
	ADDLW      _longitude+0
	MOVWF      FSR
	MOVF       _uart_rd+0, 0
	MOVWF      INDF+0
	INCF       _longitude_ptr+0, 1
	BTFSC      STATUS+0, 2
	INCF       _longitude_ptr+1, 1
;TP_memory.c,369 :: 		longitude[longitude_ptr++] = '\0';
	MOVF       _longitude_ptr+0, 0
	ADDLW      _longitude+0
	MOVWF      FSR
	CLRF       INDF+0
	INCF       _longitude_ptr+0, 1
	BTFSC      STATUS+0, 2
	INCF       _longitude_ptr+1, 1
;TP_memory.c,370 :: 		}
L_main56:
;TP_memory.c,372 :: 		if (uart_rd == '*')
	MOVF       _uart_rd+0, 0
	XORLW      42
	BTFSS      STATUS+0, 2
	GOTO       L_main57
;TP_memory.c,376 :: 		I2C_24LC32A_Data_Write(lattitude,longitude);
	MOVLW      _lattitude+0
	MOVWF      FARG_I2C_24LC32A_Data_Write_lattitude+0
	MOVLW      _longitude+0
	MOVWF      FARG_I2C_24LC32A_Data_Write_longitude+0
	CALL       _I2C_24LC32A_Data_Write+0
;TP_memory.c,377 :: 		UART1_Write_Text(lattitude);
	MOVLW      _lattitude+0
	MOVWF      FARG_UART1_Write_Text_uart_text+0
	CALL       _UART1_Write_Text+0
;TP_memory.c,378 :: 		pause = 5;
	MOVLW      5
	MOVWF      _pause+0
	MOVLW      0
	MOVWF      _pause+1
;TP_memory.c,388 :: 		}
L_main57:
;TP_memory.c,389 :: 		}
L_main44:
;TP_memory.c,391 :: 		}
L_main37:
;TP_memory.c,393 :: 		}
L_main36:
;TP_memory.c,395 :: 		}
	GOTO       L_main28
;TP_memory.c,396 :: 		}
	GOTO       $+0
; end of _main
