
_Data_Eeprom_Write:

;TP_memory.c,69 :: 		void Data_Eeprom_Write(char * donnees)
;TP_memory.c,71 :: 		short indice=0;
	CLRF       Data_Eeprom_Write_indice_L0+0
;TP_memory.c,72 :: 		while(donnees[indice] != '\0')
L_Data_Eeprom_Write0:
	MOVF       Data_Eeprom_Write_indice_L0+0, 0
	ADDWF      FARG_Data_Eeprom_Write_donnees+0, 0
	MOVWF      FSR
	MOVF       INDF+0, 0
	XORLW      0
	BTFSC      STATUS+0, 2
	GOTO       L_Data_Eeprom_Write1
;TP_memory.c,74 :: 		EEPROM_Write(adresse+indice,donnees[indice]);
	MOVF       Data_Eeprom_Write_indice_L0+0, 0
	ADDWF      _adresse+0, 0
	MOVWF      FARG_EEPROM_Write_Address+0
	MOVF       Data_Eeprom_Write_indice_L0+0, 0
	ADDWF      FARG_Data_Eeprom_Write_donnees+0, 0
	MOVWF      FSR
	MOVF       INDF+0, 0
	MOVWF      FARG_EEPROM_Write_data_+0
	CALL       _EEPROM_Write+0
;TP_memory.c,75 :: 		++indice;
	INCF       Data_Eeprom_Write_indice_L0+0, 1
;TP_memory.c,76 :: 		}
	GOTO       L_Data_Eeprom_Write0
L_Data_Eeprom_Write1:
;TP_memory.c,77 :: 		adresse += indice;
	MOVF       Data_Eeprom_Write_indice_L0+0, 0
	ADDWF      _adresse+0, 1
	BTFSC      STATUS+0, 0
	INCF       _adresse+1, 1
	MOVLW      0
	BTFSC      Data_Eeprom_Write_indice_L0+0, 7
	MOVLW      255
	ADDWF      _adresse+1, 1
;TP_memory.c,78 :: 		}
	RETURN
; end of _Data_Eeprom_Write

_Data_Write:

;TP_memory.c,80 :: 		void Data_Write(char * lattitude, char * longitude)
;TP_memory.c,82 :: 		Data_Eeprom_Write(lattitude);
	MOVF       FARG_Data_Write_lattitude+0, 0
	MOVWF      FARG_Data_Eeprom_Write_donnees+0
	CALL       _Data_Eeprom_Write+0
;TP_memory.c,83 :: 		Data_Eeprom_Write(longitude);
	MOVF       FARG_Data_Write_longitude+0, 0
	MOVWF      FARG_Data_Eeprom_Write_donnees+0
	CALL       _Data_Eeprom_Write+0
;TP_memory.c,84 :: 		}
	RETURN
; end of _Data_Write

_Data_Eeprom_Read:

;TP_memory.c,86 :: 		char * Data_Eeprom_Read(int item)
;TP_memory.c,90 :: 		char address = 0;
	CLRF       Data_Eeprom_Read_address_L0+0
;TP_memory.c,91 :: 		address += (item*TRAME_LG);
	MOVF       FARG_Data_Eeprom_Read_item+0, 0
	MOVWF      R0+0
	MOVLW      24
	MOVWF      R4+0
	CALL       _Mul_8x8_U+0
	MOVF       R0+0, 0
	ADDWF      Data_Eeprom_Read_address_L0+0, 1
;TP_memory.c,93 :: 		for (indice = 0; indice < TRAME_LG; ++indice)
	CLRF       Data_Eeprom_Read_indice_L0+0
	CLRF       Data_Eeprom_Read_indice_L0+1
L_Data_Eeprom_Read2:
	MOVLW      128
	XORWF      Data_Eeprom_Read_indice_L0+1, 0
	MOVWF      R0+0
	MOVLW      128
	SUBWF      R0+0, 0
	BTFSS      STATUS+0, 2
	GOTO       L__Data_Eeprom_Read68
	MOVLW      24
	SUBWF      Data_Eeprom_Read_indice_L0+0, 0
L__Data_Eeprom_Read68:
	BTFSC      STATUS+0, 0
	GOTO       L_Data_Eeprom_Read3
;TP_memory.c,95 :: 		donnees[indice]=EEPROM_Read(address+indice);
	MOVF       Data_Eeprom_Read_indice_L0+0, 0
	ADDLW      Data_Eeprom_Read_donnees_L0+0
	MOVWF      FLOC__Data_Eeprom_Read+0
	MOVF       Data_Eeprom_Read_indice_L0+0, 0
	ADDWF      Data_Eeprom_Read_address_L0+0, 0
	MOVWF      FARG_EEPROM_Read_Address+0
	CALL       _EEPROM_Read+0
	MOVF       FLOC__Data_Eeprom_Read+0, 0
	MOVWF      FSR
	MOVF       R0+0, 0
	MOVWF      INDF+0
;TP_memory.c,96 :: 		Delay_ms(250);
	MOVLW      3
	MOVWF      R11+0
	MOVLW      138
	MOVWF      R12+0
	MOVLW      85
	MOVWF      R13+0
L_Data_Eeprom_Read5:
	DECFSZ     R13+0, 1
	GOTO       L_Data_Eeprom_Read5
	DECFSZ     R12+0, 1
	GOTO       L_Data_Eeprom_Read5
	DECFSZ     R11+0, 1
	GOTO       L_Data_Eeprom_Read5
	NOP
	NOP
;TP_memory.c,93 :: 		for (indice = 0; indice < TRAME_LG; ++indice)
	INCF       Data_Eeprom_Read_indice_L0+0, 1
	BTFSC      STATUS+0, 2
	INCF       Data_Eeprom_Read_indice_L0+1, 1
;TP_memory.c,97 :: 		}
	GOTO       L_Data_Eeprom_Read2
L_Data_Eeprom_Read3:
;TP_memory.c,98 :: 		donnees[TRAME_LG]='\0';
	CLRF       Data_Eeprom_Read_donnees_L0+24
;TP_memory.c,100 :: 		return donnees;
	MOVLW      Data_Eeprom_Read_donnees_L0+0
	MOVWF      R0+0
;TP_memory.c,101 :: 		}
	RETURN
; end of _Data_Eeprom_Read

_Data_I2C_EEPROM_Write:

;TP_memory.c,105 :: 		void Data_I2C_EEPROM_Write(char * donnees)
;TP_memory.c,107 :: 		short indice=0;
	CLRF       Data_I2C_EEPROM_Write_indice_L0+0
;TP_memory.c,109 :: 		while(donnees[indice] != '\0')
L_Data_I2C_EEPROM_Write6:
	MOVF       Data_I2C_EEPROM_Write_indice_L0+0, 0
	ADDWF      FARG_Data_I2C_EEPROM_Write_donnees+0, 0
	MOVWF      FSR
	MOVF       INDF+0, 0
	XORLW      0
	BTFSC      STATUS+0, 2
	GOTO       L_Data_I2C_EEPROM_Write7
;TP_memory.c,111 :: 		I2C1_Start();              // issue I2C start signal
	CALL       _I2C1_Start+0
;TP_memory.c,112 :: 		I2C1_Wr(0xA0);             // send byte via I2C  (device address + W)
	MOVLW      160
	MOVWF      FARG_I2C1_Wr_data_+0
	CALL       _I2C1_Wr+0
;TP_memory.c,113 :: 		I2C1_Wr(adresse+indice);          // send byte (address of EEPROM location)
	MOVF       Data_I2C_EEPROM_Write_indice_L0+0, 0
	ADDWF      _adresse+0, 0
	MOVWF      FARG_I2C1_Wr_data_+0
	CALL       _I2C1_Wr+0
;TP_memory.c,114 :: 		I2C1_Wr(donnees[indice]);        // send data (data to be written)
	MOVF       Data_I2C_EEPROM_Write_indice_L0+0, 0
	ADDWF      FARG_Data_I2C_EEPROM_Write_donnees+0, 0
	MOVWF      FSR
	MOVF       INDF+0, 0
	MOVWF      FARG_I2C1_Wr_data_+0
	CALL       _I2C1_Wr+0
;TP_memory.c,115 :: 		I2C1_Stop();               // issue I2C stop signal
	CALL       _I2C1_Stop+0
;TP_memory.c,116 :: 		Delay_ms(10);
	MOVLW      26
	MOVWF      R12+0
	MOVLW      248
	MOVWF      R13+0
L_Data_I2C_EEPROM_Write8:
	DECFSZ     R13+0, 1
	GOTO       L_Data_I2C_EEPROM_Write8
	DECFSZ     R12+0, 1
	GOTO       L_Data_I2C_EEPROM_Write8
	NOP
;TP_memory.c,117 :: 		++indice;
	INCF       Data_I2C_EEPROM_Write_indice_L0+0, 1
;TP_memory.c,118 :: 		}
	GOTO       L_Data_I2C_EEPROM_Write6
L_Data_I2C_EEPROM_Write7:
;TP_memory.c,119 :: 		adresse += indice;
	MOVF       Data_I2C_EEPROM_Write_indice_L0+0, 0
	ADDWF      _adresse+0, 1
	BTFSC      STATUS+0, 0
	INCF       _adresse+1, 1
	MOVLW      0
	BTFSC      Data_I2C_EEPROM_Write_indice_L0+0, 7
	MOVLW      255
	ADDWF      _adresse+1, 1
;TP_memory.c,120 :: 		}
	RETURN
; end of _Data_I2C_EEPROM_Write

_Data_I2C_EEPROM_Read:

;TP_memory.c,122 :: 		char * Data_I2C_EEPROM_Read(int item)
;TP_memory.c,126 :: 		char address = 0;
	CLRF       Data_I2C_EEPROM_Read_address_L0+0
;TP_memory.c,129 :: 		address += (item*TRAME_LG);
	MOVF       FARG_Data_I2C_EEPROM_Read_item+0, 0
	MOVWF      R0+0
	MOVLW      24
	MOVWF      R4+0
	CALL       _Mul_8x8_U+0
	MOVF       R0+0, 0
	ADDWF      Data_I2C_EEPROM_Read_address_L0+0, 1
;TP_memory.c,131 :: 		for (indice = 0; indice < TRAME_LG; ++indice)
	CLRF       Data_I2C_EEPROM_Read_indice_L0+0
	CLRF       Data_I2C_EEPROM_Read_indice_L0+1
L_Data_I2C_EEPROM_Read9:
	MOVLW      128
	XORWF      Data_I2C_EEPROM_Read_indice_L0+1, 0
	MOVWF      R0+0
	MOVLW      128
	SUBWF      R0+0, 0
	BTFSS      STATUS+0, 2
	GOTO       L__Data_I2C_EEPROM_Read69
	MOVLW      24
	SUBWF      Data_I2C_EEPROM_Read_indice_L0+0, 0
L__Data_I2C_EEPROM_Read69:
	BTFSC      STATUS+0, 0
	GOTO       L_Data_I2C_EEPROM_Read10
;TP_memory.c,133 :: 		I2C1_Start();              // issue I2C start signal
	CALL       _I2C1_Start+0
;TP_memory.c,134 :: 		I2C1_Wr(0xA0);             // send byte via I2C  (device address + W)
	MOVLW      160
	MOVWF      FARG_I2C1_Wr_data_+0
	CALL       _I2C1_Wr+0
;TP_memory.c,135 :: 		I2C1_Wr(address+indice);          // send byte (data address)
	MOVF       Data_I2C_EEPROM_Read_indice_L0+0, 0
	ADDWF      Data_I2C_EEPROM_Read_address_L0+0, 0
	MOVWF      FARG_I2C1_Wr_data_+0
	CALL       _I2C1_Wr+0
;TP_memory.c,136 :: 		I2C1_Repeated_Start();     // issue I2C signal repeated start
	CALL       _I2C1_Repeated_Start+0
;TP_memory.c,137 :: 		I2C1_Wr(0xA1);             // send byte (device address + R)
	MOVLW      161
	MOVWF      FARG_I2C1_Wr_data_+0
	CALL       _I2C1_Wr+0
;TP_memory.c,138 :: 		car = I2C1_Rd(0u);         // Read the data (NO acknowledge)
	CLRF       FARG_I2C1_Rd_ack+0
	CALL       _I2C1_Rd+0
	MOVF       R0+0, 0
	MOVWF      Data_I2C_EEPROM_Read_car_L0+0
;TP_memory.c,139 :: 		I2C1_Stop();               // issue I2C stop signal
	CALL       _I2C1_Stop+0
;TP_memory.c,140 :: 		Delay_ms(10);
	MOVLW      26
	MOVWF      R12+0
	MOVLW      248
	MOVWF      R13+0
L_Data_I2C_EEPROM_Read12:
	DECFSZ     R13+0, 1
	GOTO       L_Data_I2C_EEPROM_Read12
	DECFSZ     R12+0, 1
	GOTO       L_Data_I2C_EEPROM_Read12
	NOP
;TP_memory.c,141 :: 		donnees[indice]=car;
	MOVF       Data_I2C_EEPROM_Read_indice_L0+0, 0
	ADDLW      Data_I2C_EEPROM_Read_donnees_L0+0
	MOVWF      FSR
	MOVF       Data_I2C_EEPROM_Read_car_L0+0, 0
	MOVWF      INDF+0
;TP_memory.c,131 :: 		for (indice = 0; indice < TRAME_LG; ++indice)
	INCF       Data_I2C_EEPROM_Read_indice_L0+0, 1
	BTFSC      STATUS+0, 2
	INCF       Data_I2C_EEPROM_Read_indice_L0+1, 1
;TP_memory.c,142 :: 		}
	GOTO       L_Data_I2C_EEPROM_Read9
L_Data_I2C_EEPROM_Read10:
;TP_memory.c,143 :: 		donnees[TRAME_LG]='\0';
	CLRF       Data_I2C_EEPROM_Read_donnees_L0+24
;TP_memory.c,145 :: 		return donnees;
	MOVLW      Data_I2C_EEPROM_Read_donnees_L0+0
	MOVWF      R0+0
;TP_memory.c,146 :: 		}
	RETURN
; end of _Data_I2C_EEPROM_Read

_Data_I2C_24LC32A_EEPROM_Write:

;TP_memory.c,150 :: 		void Data_I2C_24LC32A_EEPROM_Write(char * donnees)
;TP_memory.c,152 :: 		unsigned short indice=0;
	CLRF       Data_I2C_24LC32A_EEPROM_Write_indice_L0+0
;TP_memory.c,157 :: 		while(donnees[indice] != '\0')
L_Data_I2C_24LC32A_EEPROM_Write13:
	MOVF       Data_I2C_24LC32A_EEPROM_Write_indice_L0+0, 0
	ADDWF      FARG_Data_I2C_24LC32A_EEPROM_Write_donnees+0, 0
	MOVWF      FSR
	MOVF       INDF+0, 0
	XORLW      0
	BTFSC      STATUS+0, 2
	GOTO       L_Data_I2C_24LC32A_EEPROM_Write14
;TP_memory.c,159 :: 		address = adresse+indice;
	MOVF       Data_I2C_24LC32A_EEPROM_Write_indice_L0+0, 0
	ADDWF      _adresse+0, 0
	MOVWF      R3+0
	MOVF       _adresse+1, 0
	BTFSC      STATUS+0, 0
	ADDLW      1
	MOVWF      R3+1
;TP_memory.c,161 :: 		low_address = address & 0x00FF;
	MOVLW      255
	ANDWF      R3+0, 0
	MOVWF      Data_I2C_24LC32A_EEPROM_Write_low_address_L0+0
;TP_memory.c,162 :: 		high_address = (address >> 8) & 0x00FF;
	MOVF       R3+1, 0
	MOVWF      R0+0
	CLRF       R0+1
	MOVLW      255
	ANDWF      R0+0, 0
	MOVWF      Data_I2C_24LC32A_EEPROM_Write_high_address_L0+0
;TP_memory.c,164 :: 		I2C1_Start();              // issue I2C start signal
	CALL       _I2C1_Start+0
;TP_memory.c,165 :: 		I2C1_Wr(0xAE);             // send byte via I2C  (device address + W)
	MOVLW      174
	MOVWF      FARG_I2C1_Wr_data_+0
	CALL       _I2C1_Wr+0
;TP_memory.c,166 :: 		I2C1_Wr(high_address);   // send byte (address of EEPROM location)
	MOVF       Data_I2C_24LC32A_EEPROM_Write_high_address_L0+0, 0
	MOVWF      FARG_I2C1_Wr_data_+0
	CALL       _I2C1_Wr+0
;TP_memory.c,167 :: 		I2C1_Wr(low_address);   // send byte (address of EEPROM location)
	MOVF       Data_I2C_24LC32A_EEPROM_Write_low_address_L0+0, 0
	MOVWF      FARG_I2C1_Wr_data_+0
	CALL       _I2C1_Wr+0
;TP_memory.c,168 :: 		I2C1_Wr(donnees[indice]);  // send data (data to be written)
	MOVF       Data_I2C_24LC32A_EEPROM_Write_indice_L0+0, 0
	ADDWF      FARG_Data_I2C_24LC32A_EEPROM_Write_donnees+0, 0
	MOVWF      FSR
	MOVF       INDF+0, 0
	MOVWF      FARG_I2C1_Wr_data_+0
	CALL       _I2C1_Wr+0
;TP_memory.c,169 :: 		I2C1_Stop();               // issue I2C stop signal
	CALL       _I2C1_Stop+0
;TP_memory.c,170 :: 		Delay_ms(10);
	MOVLW      26
	MOVWF      R12+0
	MOVLW      248
	MOVWF      R13+0
L_Data_I2C_24LC32A_EEPROM_Write15:
	DECFSZ     R13+0, 1
	GOTO       L_Data_I2C_24LC32A_EEPROM_Write15
	DECFSZ     R12+0, 1
	GOTO       L_Data_I2C_24LC32A_EEPROM_Write15
	NOP
;TP_memory.c,171 :: 		++indice;
	INCF       Data_I2C_24LC32A_EEPROM_Write_indice_L0+0, 1
;TP_memory.c,172 :: 		}
	GOTO       L_Data_I2C_24LC32A_EEPROM_Write13
L_Data_I2C_24LC32A_EEPROM_Write14:
;TP_memory.c,173 :: 		adresse += indice;
	MOVF       Data_I2C_24LC32A_EEPROM_Write_indice_L0+0, 0
	ADDWF      _adresse+0, 1
	BTFSC      STATUS+0, 0
	INCF       _adresse+1, 1
;TP_memory.c,174 :: 		}
	RETURN
; end of _Data_I2C_24LC32A_EEPROM_Write

_Data_I2C_24LC32A_EEPROM_Read:

;TP_memory.c,176 :: 		char * Data_I2C_24LC32A_EEPROM_Read(unsigned int item)
;TP_memory.c,180 :: 		unsigned int address = 0;
	CLRF       Data_I2C_24LC32A_EEPROM_Read_address_L0+0
	CLRF       Data_I2C_24LC32A_EEPROM_Read_address_L0+1
;TP_memory.c,185 :: 		address += (item*TRAME_LG);
	MOVF       FARG_Data_I2C_24LC32A_EEPROM_Read_item+0, 0
	MOVWF      R0+0
	MOVF       FARG_Data_I2C_24LC32A_EEPROM_Read_item+1, 0
	MOVWF      R0+1
	MOVLW      24
	MOVWF      R4+0
	MOVLW      0
	MOVWF      R4+1
	CALL       _Mul_16x16_U+0
	MOVF       R0+0, 0
	ADDWF      Data_I2C_24LC32A_EEPROM_Read_address_L0+0, 1
	MOVF       R0+1, 0
	BTFSC      STATUS+0, 0
	ADDLW      1
	ADDWF      Data_I2C_24LC32A_EEPROM_Read_address_L0+1, 1
;TP_memory.c,187 :: 		for (indice = 0; indice < TRAME_LG; ++indice)
	CLRF       Data_I2C_24LC32A_EEPROM_Read_indice_L0+0
L_Data_I2C_24LC32A_EEPROM_Read16:
	MOVLW      24
	SUBWF      Data_I2C_24LC32A_EEPROM_Read_indice_L0+0, 0
	BTFSC      STATUS+0, 0
	GOTO       L_Data_I2C_24LC32A_EEPROM_Read17
;TP_memory.c,189 :: 		low_address = address & 0x00FF;
	MOVLW      255
	ANDWF      Data_I2C_24LC32A_EEPROM_Read_address_L0+0, 0
	MOVWF      Data_I2C_24LC32A_EEPROM_Read_low_address_L0+0
;TP_memory.c,190 :: 		high_address = (address >> 8) & 0x00FF;
	MOVF       Data_I2C_24LC32A_EEPROM_Read_address_L0+1, 0
	MOVWF      R0+0
	CLRF       R0+1
	MOVLW      255
	ANDWF      R0+0, 0
	MOVWF      Data_I2C_24LC32A_EEPROM_Read_high_address_L0+0
;TP_memory.c,192 :: 		I2C1_Start();              // issue I2C start signal
	CALL       _I2C1_Start+0
;TP_memory.c,193 :: 		I2C1_Wr(0xAE);             // send byte via I2C  (device address + W)
	MOVLW      174
	MOVWF      FARG_I2C1_Wr_data_+0
	CALL       _I2C1_Wr+0
;TP_memory.c,194 :: 		I2C1_Wr(high_address);     // send byte (data address)
	MOVF       Data_I2C_24LC32A_EEPROM_Read_high_address_L0+0, 0
	MOVWF      FARG_I2C1_Wr_data_+0
	CALL       _I2C1_Wr+0
;TP_memory.c,195 :: 		I2C1_Wr(low_address);      // send byte (data address)
	MOVF       Data_I2C_24LC32A_EEPROM_Read_low_address_L0+0, 0
	MOVWF      FARG_I2C1_Wr_data_+0
	CALL       _I2C1_Wr+0
;TP_memory.c,196 :: 		I2C1_Repeated_Start();     // issue I2C signal repeated start
	CALL       _I2C1_Repeated_Start+0
;TP_memory.c,197 :: 		I2C1_Wr(0xAF);             // send byte (device address + R)
	MOVLW      175
	MOVWF      FARG_I2C1_Wr_data_+0
	CALL       _I2C1_Wr+0
;TP_memory.c,198 :: 		car = I2C1_Rd(0u);         // Read the data (NO acknowledge)
	CLRF       FARG_I2C1_Rd_ack+0
	CALL       _I2C1_Rd+0
	MOVF       R0+0, 0
	MOVWF      Data_I2C_24LC32A_EEPROM_Read_car_L0+0
;TP_memory.c,199 :: 		I2C1_Stop();               // issue I2C stop signal
	CALL       _I2C1_Stop+0
;TP_memory.c,200 :: 		Delay_ms(10);
	MOVLW      26
	MOVWF      R12+0
	MOVLW      248
	MOVWF      R13+0
L_Data_I2C_24LC32A_EEPROM_Read19:
	DECFSZ     R13+0, 1
	GOTO       L_Data_I2C_24LC32A_EEPROM_Read19
	DECFSZ     R12+0, 1
	GOTO       L_Data_I2C_24LC32A_EEPROM_Read19
	NOP
;TP_memory.c,201 :: 		donnees[indice]=car;
	MOVF       Data_I2C_24LC32A_EEPROM_Read_indice_L0+0, 0
	ADDLW      Data_I2C_24LC32A_EEPROM_Read_donnees_L0+0
	MOVWF      FSR
	MOVF       Data_I2C_24LC32A_EEPROM_Read_car_L0+0, 0
	MOVWF      INDF+0
;TP_memory.c,203 :: 		address += 1;
	INCF       Data_I2C_24LC32A_EEPROM_Read_address_L0+0, 1
	BTFSC      STATUS+0, 2
	INCF       Data_I2C_24LC32A_EEPROM_Read_address_L0+1, 1
;TP_memory.c,187 :: 		for (indice = 0; indice < TRAME_LG; ++indice)
	INCF       Data_I2C_24LC32A_EEPROM_Read_indice_L0+0, 1
;TP_memory.c,204 :: 		}
	GOTO       L_Data_I2C_24LC32A_EEPROM_Read16
L_Data_I2C_24LC32A_EEPROM_Read17:
;TP_memory.c,205 :: 		donnees[TRAME_LG]='\0';
	CLRF       Data_I2C_24LC32A_EEPROM_Read_donnees_L0+24
;TP_memory.c,207 :: 		return donnees;
	MOVLW      Data_I2C_24LC32A_EEPROM_Read_donnees_L0+0
	MOVWF      R0+0
;TP_memory.c,208 :: 		}
	RETURN
; end of _Data_I2C_24LC32A_EEPROM_Read

_timeButtonAction:

;TP_memory.c,212 :: 		void timeButtonAction()
;TP_memory.c,214 :: 		timeButtonFlag =0;
	BCF        _timeButtonFlag+0, BitPos(_timeButtonFlag+0)
;TP_memory.c,215 :: 		switch (timeDelay)
	GOTO       L_timeButtonAction20
;TP_memory.c,217 :: 		case 5:  timeDelay=10;
L_timeButtonAction22:
	MOVLW      10
	MOVWF      _timeDelay+0
	MOVLW      0
	MOVWF      _timeDelay+1
;TP_memory.c,218 :: 		PORTD = 0x02;
	MOVLW      2
	MOVWF      PORTD+0
;TP_memory.c,219 :: 		break;
	GOTO       L_timeButtonAction21
;TP_memory.c,221 :: 		case 10:  timeDelay=20;
L_timeButtonAction23:
	MOVLW      20
	MOVWF      _timeDelay+0
	MOVLW      0
	MOVWF      _timeDelay+1
;TP_memory.c,222 :: 		PORTD = 0x04;
	MOVLW      4
	MOVWF      PORTD+0
;TP_memory.c,223 :: 		break;
	GOTO       L_timeButtonAction21
;TP_memory.c,225 :: 		case 20: timeDelay=5;
L_timeButtonAction24:
	MOVLW      5
	MOVWF      _timeDelay+0
	MOVLW      0
	MOVWF      _timeDelay+1
;TP_memory.c,226 :: 		PORTD = 0x01;
	MOVLW      1
	MOVWF      PORTD+0
;TP_memory.c,227 :: 		break;
	GOTO       L_timeButtonAction21
;TP_memory.c,228 :: 		}
L_timeButtonAction20:
	MOVLW      0
	XORWF      _timeDelay+1, 0
	BTFSS      STATUS+0, 2
	GOTO       L__timeButtonAction70
	MOVLW      5
	XORWF      _timeDelay+0, 0
L__timeButtonAction70:
	BTFSC      STATUS+0, 2
	GOTO       L_timeButtonAction22
	MOVLW      0
	XORWF      _timeDelay+1, 0
	BTFSS      STATUS+0, 2
	GOTO       L__timeButtonAction71
	MOVLW      10
	XORWF      _timeDelay+0, 0
L__timeButtonAction71:
	BTFSC      STATUS+0, 2
	GOTO       L_timeButtonAction23
	MOVLW      0
	XORWF      _timeDelay+1, 0
	BTFSS      STATUS+0, 2
	GOTO       L__timeButtonAction72
	MOVLW      20
	XORWF      _timeDelay+0, 0
L__timeButtonAction72:
	BTFSC      STATUS+0, 2
	GOTO       L_timeButtonAction24
L_timeButtonAction21:
;TP_memory.c,230 :: 		pause = timeDelay;
	MOVF       _timeDelay+0, 0
	MOVWF      _pause+0
	MOVF       _timeDelay+1, 0
	MOVWF      _pause+1
;TP_memory.c,232 :: 		}
	RETURN
; end of _timeButtonAction

_startAndStopButtonAction:

;TP_memory.c,234 :: 		void startAndStopButtonAction()
;TP_memory.c,236 :: 		listen = ~listen;
	MOVLW
	XORWF      _listen+0, 1
;TP_memory.c,237 :: 		pause = 0;
	CLRF       _pause+0
	CLRF       _pause+1
;TP_memory.c,238 :: 		startAndStopButtonFlag = 0;
	BCF        _startAndStopButtonFlag+0, BitPos(_startAndStopButtonFlag+0)
;TP_memory.c,239 :: 		}
	RETURN
; end of _startAndStopButtonAction

_sendButtonAction:

;TP_memory.c,241 :: 		void sendButtonAction()
;TP_memory.c,245 :: 		lastItem = adresse / TRAME_LG;
	MOVLW      24
	MOVWF      R4+0
	MOVLW      0
	MOVWF      R4+1
	MOVF       _adresse+0, 0
	MOVWF      R0+0
	MOVF       _adresse+1, 0
	MOVWF      R0+1
	CALL       _Div_16x16_U+0
	MOVF       R0+0, 0
	MOVWF      sendButtonAction_lastItem_L0+0
	MOVF       R0+1, 0
	MOVWF      sendButtonAction_lastItem_L0+1
;TP_memory.c,247 :: 		for (i = 0 ; i < lastItem ; ++i)
	CLRF       sendButtonAction_i_L0+0
	CLRF       sendButtonAction_i_L0+1
L_sendButtonAction25:
	MOVF       sendButtonAction_lastItem_L0+1, 0
	SUBWF      sendButtonAction_i_L0+1, 0
	BTFSS      STATUS+0, 2
	GOTO       L__sendButtonAction73
	MOVF       sendButtonAction_lastItem_L0+0, 0
	SUBWF      sendButtonAction_i_L0+0, 0
L__sendButtonAction73:
	BTFSC      STATUS+0, 0
	GOTO       L_sendButtonAction26
;TP_memory.c,249 :: 		UART1_Write_Text(Data_I2C_24LC32A_EEPROM_Read(i));
	MOVF       sendButtonAction_i_L0+0, 0
	MOVWF      FARG_Data_I2C_24LC32A_EEPROM_Read_item+0
	MOVF       sendButtonAction_i_L0+1, 0
	MOVWF      FARG_Data_I2C_24LC32A_EEPROM_Read_item+1
	CALL       _Data_I2C_24LC32A_EEPROM_Read+0
	MOVF       R0+0, 0
	MOVWF      FARG_UART1_Write_Text_uart_text+0
	CALL       _UART1_Write_Text+0
;TP_memory.c,250 :: 		UART1_Write(13);
	MOVLW      13
	MOVWF      FARG_UART1_Write_data_+0
	CALL       _UART1_Write+0
;TP_memory.c,251 :: 		UART1_Write(10);
	MOVLW      10
	MOVWF      FARG_UART1_Write_data_+0
	CALL       _UART1_Write+0
;TP_memory.c,247 :: 		for (i = 0 ; i < lastItem ; ++i)
	INCF       sendButtonAction_i_L0+0, 1
	BTFSC      STATUS+0, 2
	INCF       sendButtonAction_i_L0+1, 1
;TP_memory.c,252 :: 		}
	GOTO       L_sendButtonAction25
L_sendButtonAction26:
;TP_memory.c,254 :: 		sendButtonFlag = 0;
	BCF        _sendButtonFlag+0, BitPos(_sendButtonFlag+0)
;TP_memory.c,255 :: 		adresse = 0;
	CLRF       _adresse+0
	CLRF       _adresse+1
;TP_memory.c,256 :: 		}
	RETURN
; end of _sendButtonAction

_interrupt_configuration:

;TP_memory.c,260 :: 		void interrupt_configuration()
;TP_memory.c,262 :: 		PORTB=0;
	CLRF       PORTB+0
;TP_memory.c,263 :: 		TRISB = 0xF0; // Initialisation du port B en entree pour RB7, RB6, RB5 et RB4
	MOVLW      240
	MOVWF      TRISB+0
;TP_memory.c,265 :: 		INTCON.RBIE=1;     // Autorise l'IT du RB
	BSF        INTCON+0, 3
;TP_memory.c,266 :: 		INTCON.GIE=1;      // Autorisation generale des IT
	BSF        INTCON+0, 7
;TP_memory.c,267 :: 		INTCON.RBIF=0; 	   // Efface le flag d'IT sur RB cf p20 datasheet du 16F877A
	BCF        INTCON+0, 0
;TP_memory.c,269 :: 		startAndStopButtonFlag = 0;
	BCF        _startAndStopButtonFlag+0, BitPos(_startAndStopButtonFlag+0)
;TP_memory.c,270 :: 		sendButtonFlag = 0;
	BCF        _sendButtonFlag+0, BitPos(_sendButtonFlag+0)
;TP_memory.c,271 :: 		timeButtonFlag = 0;
	BCF        _timeButtonFlag+0, BitPos(_timeButtonFlag+0)
;TP_memory.c,272 :: 		}
	RETURN
; end of _interrupt_configuration

_interrupt:
	MOVWF      R15+0
	SWAPF      STATUS+0, 0
	CLRF       STATUS+0
	MOVWF      ___saveSTATUS+0
	MOVF       PCLATH+0, 0
	MOVWF      ___savePCLATH+0
	CLRF       PCLATH+0

;TP_memory.c,274 :: 		void interrupt()
;TP_memory.c,278 :: 		if (intcon.RBIF == 1)  //Au moins une des entrées RB7 à RB4 a changé d'état
	BTFSS      INTCON+0, 0
	GOTO       L_interrupt28
;TP_memory.c,280 :: 		portbValue = PORTB;
	MOVF       PORTB+0, 0
	MOVWF      R1+0
;TP_memory.c,282 :: 		if (portbValue == 0x80)    // RB7 appuyé
	MOVF       R1+0, 0
	XORLW      128
	BTFSS      STATUS+0, 2
	GOTO       L_interrupt29
;TP_memory.c,284 :: 		startAndStopButtonFlag = 1;
	BSF        _startAndStopButtonFlag+0, BitPos(_startAndStopButtonFlag+0)
;TP_memory.c,285 :: 		}
	GOTO       L_interrupt30
L_interrupt29:
;TP_memory.c,286 :: 		else if (portbValue == 0x40)     // RB6 appuyé
	MOVF       R1+0, 0
	XORLW      64
	BTFSS      STATUS+0, 2
	GOTO       L_interrupt31
;TP_memory.c,288 :: 		timeButtonFlag  = 1;
	BSF        _timeButtonFlag+0, BitPos(_timeButtonFlag+0)
;TP_memory.c,289 :: 		}
	GOTO       L_interrupt32
L_interrupt31:
;TP_memory.c,290 :: 		else if(portbValue == 0x10)  //RB4 appuyé
	MOVF       R1+0, 0
	XORLW      16
	BTFSS      STATUS+0, 2
	GOTO       L_interrupt33
;TP_memory.c,292 :: 		sendButtonFlag = 1;
	BSF        _sendButtonFlag+0, BitPos(_sendButtonFlag+0)
;TP_memory.c,293 :: 		}
L_interrupt33:
L_interrupt32:
L_interrupt30:
;TP_memory.c,294 :: 		}
L_interrupt28:
;TP_memory.c,295 :: 		INTCON.RBIF=0; // Efface le flag d'IT sur RB
	BCF        INTCON+0, 0
;TP_memory.c,297 :: 		}
L__interrupt74:
	MOVF       ___savePCLATH+0, 0
	MOVWF      PCLATH+0
	SWAPF      ___saveSTATUS+0, 0
	MOVWF      STATUS+0
	SWAPF      R15+0, 1
	SWAPF      R15+0, 0
	RETFIE
; end of _interrupt

_main:

;TP_memory.c,301 :: 		void main()
;TP_memory.c,303 :: 		char good_trame = 0;
	CLRF       main_good_trame_L0+0
	CLRF       main_g_counter_L0+0
;TP_memory.c,307 :: 		UART1_Init(9600);               // Initialize UART module at 9600 bps
	MOVLW      51
	MOVWF      SPBRG+0
	BSF        TXSTA+0, 2
	CALL       _UART1_Init+0
;TP_memory.c,308 :: 		Delay_ms(100);                  // Wait for UART module to stabilize
	MOVLW      2
	MOVWF      R11+0
	MOVLW      4
	MOVWF      R12+0
	MOVLW      186
	MOVWF      R13+0
L_main34:
	DECFSZ     R13+0, 1
	GOTO       L_main34
	DECFSZ     R12+0, 1
	GOTO       L_main34
	DECFSZ     R11+0, 1
	GOTO       L_main34
	NOP
;TP_memory.c,309 :: 		Lcd_Init();                        // Initialize LCD
	CALL       _Lcd_Init+0
;TP_memory.c,311 :: 		Lcd_Cmd(_LCD_CLEAR);               // Clear display
	MOVLW      1
	MOVWF      FARG_Lcd_Cmd_out_char+0
	CALL       _Lcd_Cmd+0
;TP_memory.c,312 :: 		Lcd_Cmd(_LCD_CURSOR_OFF);          // Cursor off
	MOVLW      12
	MOVWF      FARG_Lcd_Cmd_out_char+0
	CALL       _Lcd_Cmd+0
;TP_memory.c,314 :: 		counter = 0;
	CLRF       _counter+0
	CLRF       _counter+1
;TP_memory.c,315 :: 		pause = 0;
	CLRF       _pause+0
	CLRF       _pause+1
;TP_memory.c,316 :: 		listen = 0;
	BCF        _listen+0, BitPos(_listen+0)
;TP_memory.c,318 :: 		timeDelay=5;
	MOVLW      5
	MOVWF      _timeDelay+0
	MOVLW      0
	MOVWF      _timeDelay+1
;TP_memory.c,319 :: 		PORTD = 0;
	CLRF       PORTD+0
;TP_memory.c,321 :: 		I2C1_Init(100000);         // initialize I2C communication
	MOVLW      20
	MOVWF      SSPADD+0
	CALL       _I2C1_Init+0
;TP_memory.c,323 :: 		interrupt_configuration();
	CALL       _interrupt_configuration+0
;TP_memory.c,325 :: 		while (1)
L_main35:
;TP_memory.c,327 :: 		if (startAndStopButtonFlag) startAndStopButtonAction();
	BTFSS      _startAndStopButtonFlag+0, BitPos(_startAndStopButtonFlag+0)
	GOTO       L_main37
	CALL       _startAndStopButtonAction+0
L_main37:
;TP_memory.c,328 :: 		if (sendButtonFlag) sendButtonAction();
	BTFSS      _sendButtonFlag+0, BitPos(_sendButtonFlag+0)
	GOTO       L_main38
	CALL       _sendButtonAction+0
L_main38:
;TP_memory.c,329 :: 		if (timeButtonFlag) timeButtonAction();
	BTFSS      _timeButtonFlag+0, BitPos(_timeButtonFlag+0)
	GOTO       L_main39
	CALL       _timeButtonAction+0
L_main39:
;TP_memory.c,331 :: 		if (pause > 0)
	MOVF       _pause+1, 0
	SUBLW      0
	BTFSS      STATUS+0, 2
	GOTO       L__main75
	MOVF       _pause+0, 0
	SUBLW      0
L__main75:
	BTFSC      STATUS+0, 0
	GOTO       L_main40
;TP_memory.c,333 :: 		delay_ms(1000);
	MOVLW      11
	MOVWF      R11+0
	MOVLW      38
	MOVWF      R12+0
	MOVLW      93
	MOVWF      R13+0
L_main41:
	DECFSZ     R13+0, 1
	GOTO       L_main41
	DECFSZ     R12+0, 1
	GOTO       L_main41
	DECFSZ     R11+0, 1
	GOTO       L_main41
	NOP
	NOP
;TP_memory.c,334 :: 		--pause;
	MOVLW      1
	SUBWF      _pause+0, 1
	BTFSS      STATUS+0, 0
	DECF       _pause+1, 1
;TP_memory.c,335 :: 		}
L_main40:
;TP_memory.c,337 :: 		if (listen && pause == 0)
	BTFSS      _listen+0, BitPos(_listen+0)
	GOTO       L_main44
	MOVLW      0
	XORWF      _pause+1, 0
	BTFSS      STATUS+0, 2
	GOTO       L__main76
	MOVLW      0
	XORWF      _pause+0, 0
L__main76:
	BTFSS      STATUS+0, 2
	GOTO       L_main44
L__main67:
;TP_memory.c,340 :: 		if (UART1_Data_Ready())      // If data is received,
	CALL       _UART1_Data_Ready+0
	MOVF       R0+0, 0
	BTFSC      STATUS+0, 2
	GOTO       L_main45
;TP_memory.c,342 :: 		uart_rd = UART1_Read();     // read the received data,
	CALL       _UART1_Read+0
	MOVF       R0+0, 0
	MOVWF      _uart_rd+0
;TP_memory.c,344 :: 		if (uart_rd == '$')         // if we read a gps frame
	MOVF       R0+0, 0
	XORLW      36
	BTFSS      STATUS+0, 2
	GOTO       L_main46
;TP_memory.c,346 :: 		counter = 0;          // counter initialization
	CLRF       _counter+0
	CLRF       _counter+1
;TP_memory.c,347 :: 		lattitude_ptr = 0;
	CLRF       _lattitude_ptr+0
	CLRF       _lattitude_ptr+1
;TP_memory.c,348 :: 		g_counter = 0;
	CLRF       main_g_counter_L0+0
;TP_memory.c,349 :: 		good_trame = 0;
	CLRF       main_good_trame_L0+0
;TP_memory.c,350 :: 		}
L_main46:
;TP_memory.c,352 :: 		if( uart_rd == 'G')
	MOVF       _uart_rd+0, 0
	XORLW      71
	BTFSS      STATUS+0, 2
	GOTO       L_main47
;TP_memory.c,354 :: 		++g_counter;
	INCF       main_g_counter_L0+0, 1
;TP_memory.c,355 :: 		}
L_main47:
;TP_memory.c,357 :: 		if (g_counter == 3 && counter == 0)
	MOVF       main_g_counter_L0+0, 0
	XORLW      3
	BTFSS      STATUS+0, 2
	GOTO       L_main50
	MOVLW      0
	XORWF      _counter+1, 0
	BTFSS      STATUS+0, 2
	GOTO       L__main77
	MOVLW      0
	XORWF      _counter+0, 0
L__main77:
	BTFSS      STATUS+0, 2
	GOTO       L_main50
L__main66:
;TP_memory.c,359 :: 		good_trame = 1;
	MOVLW      1
	MOVWF      main_good_trame_L0+0
;TP_memory.c,360 :: 		}
L_main50:
;TP_memory.c,362 :: 		if (uart_rd == ',')        // word separation symbole
	MOVF       _uart_rd+0, 0
	XORLW      44
	BTFSS      STATUS+0, 2
	GOTO       L_main51
;TP_memory.c,364 :: 		++counter;
	INCF       _counter+0, 1
	BTFSC      STATUS+0, 2
	INCF       _counter+1, 1
;TP_memory.c,365 :: 		}
L_main51:
;TP_memory.c,367 :: 		if (good_trame)
	MOVF       main_good_trame_L0+0, 0
	BTFSC      STATUS+0, 2
	GOTO       L_main52
;TP_memory.c,370 :: 		if (counter != 2 || uart_rd != ',')
	MOVLW      0
	XORWF      _counter+1, 0
	BTFSS      STATUS+0, 2
	GOTO       L__main78
	MOVLW      2
	XORWF      _counter+0, 0
L__main78:
	BTFSS      STATUS+0, 2
	GOTO       L__main65
	MOVF       _uart_rd+0, 0
	XORLW      44
	BTFSS      STATUS+0, 2
	GOTO       L__main65
	GOTO       L_main55
L__main65:
;TP_memory.c,372 :: 		if (counter >= 2 && lattitude_ptr < 24)
	MOVLW      128
	XORWF      _counter+1, 0
	MOVWF      R0+0
	MOVLW      128
	SUBWF      R0+0, 0
	BTFSS      STATUS+0, 2
	GOTO       L__main79
	MOVLW      2
	SUBWF      _counter+0, 0
L__main79:
	BTFSS      STATUS+0, 0
	GOTO       L_main58
	MOVLW      128
	XORWF      _lattitude_ptr+1, 0
	MOVWF      R0+0
	MOVLW      128
	SUBWF      R0+0, 0
	BTFSS      STATUS+0, 2
	GOTO       L__main80
	MOVLW      24
	SUBWF      _lattitude_ptr+0, 0
L__main80:
	BTFSC      STATUS+0, 0
	GOTO       L_main58
L__main64:
;TP_memory.c,374 :: 		lattitude[lattitude_ptr++] = uart_rd;
	MOVF       _lattitude_ptr+0, 0
	ADDLW      _lattitude+0
	MOVWF      FSR
	MOVF       _uart_rd+0, 0
	MOVWF      INDF+0
	INCF       _lattitude_ptr+0, 1
	BTFSC      STATUS+0, 2
	INCF       _lattitude_ptr+1, 1
;TP_memory.c,375 :: 		}
L_main58:
;TP_memory.c,377 :: 		if (counter >= 2 && lattitude_ptr == 24)
	MOVLW      128
	XORWF      _counter+1, 0
	MOVWF      R0+0
	MOVLW      128
	SUBWF      R0+0, 0
	BTFSS      STATUS+0, 2
	GOTO       L__main81
	MOVLW      2
	SUBWF      _counter+0, 0
L__main81:
	BTFSS      STATUS+0, 0
	GOTO       L_main61
	MOVLW      0
	XORWF      _lattitude_ptr+1, 0
	BTFSS      STATUS+0, 2
	GOTO       L__main82
	MOVLW      24
	XORWF      _lattitude_ptr+0, 0
L__main82:
	BTFSS      STATUS+0, 2
	GOTO       L_main61
L__main63:
;TP_memory.c,379 :: 		lattitude[lattitude_ptr++] = '\0';
	MOVF       _lattitude_ptr+0, 0
	ADDLW      _lattitude+0
	MOVWF      FSR
	CLRF       INDF+0
	INCF       _lattitude_ptr+0, 1
	BTFSC      STATUS+0, 2
	INCF       _lattitude_ptr+1, 1
;TP_memory.c,380 :: 		}
L_main61:
;TP_memory.c,381 :: 		}
L_main55:
;TP_memory.c,383 :: 		if (uart_rd == '*')
	MOVF       _uart_rd+0, 0
	XORLW      42
	BTFSS      STATUS+0, 2
	GOTO       L_main62
;TP_memory.c,385 :: 		Data_I2C_24LC32A_EEPROM_Write(lattitude);
	MOVLW      _lattitude+0
	MOVWF      FARG_Data_I2C_24LC32A_EEPROM_Write_donnees+0
	CALL       _Data_I2C_24LC32A_EEPROM_Write+0
;TP_memory.c,386 :: 		pause = timeDelay;
	MOVF       _timeDelay+0, 0
	MOVWF      _pause+0
	MOVF       _timeDelay+1, 0
	MOVWF      _pause+1
;TP_memory.c,387 :: 		UART1_Write_Text("coucou \n");
	MOVLW      ?lstr1_TP_memory+0
	MOVWF      FARG_UART1_Write_Text_uart_text+0
	CALL       _UART1_Write_Text+0
;TP_memory.c,388 :: 		}
L_main62:
;TP_memory.c,389 :: 		}
L_main52:
;TP_memory.c,391 :: 		}
L_main45:
;TP_memory.c,393 :: 		}
L_main44:
;TP_memory.c,395 :: 		}
	GOTO       L_main35
;TP_memory.c,396 :: 		}
	GOTO       $+0
; end of _main
