
_Data_Eeprom_Write:

;TP_memory.c,58 :: 		void Data_Eeprom_Write(char * donnees)
;TP_memory.c,60 :: 		short indice=0;
	CLRF       Data_Eeprom_Write_indice_L0+0
;TP_memory.c,61 :: 		while(donnees[indice] != '\0')
L_Data_Eeprom_Write0:
	MOVF       Data_Eeprom_Write_indice_L0+0, 0
	ADDWF      FARG_Data_Eeprom_Write_donnees+0, 0
	MOVWF      FSR
	MOVF       INDF+0, 0
	XORLW      0
	BTFSC      STATUS+0, 2
	GOTO       L_Data_Eeprom_Write1
;TP_memory.c,63 :: 		EEPROM_Write(adresse+indice,donnees[indice]);
	MOVF       Data_Eeprom_Write_indice_L0+0, 0
	ADDWF      _adresse+0, 0
	MOVWF      FARG_EEPROM_Write_Address+0
	MOVF       Data_Eeprom_Write_indice_L0+0, 0
	ADDWF      FARG_Data_Eeprom_Write_donnees+0, 0
	MOVWF      FSR
	MOVF       INDF+0, 0
	MOVWF      FARG_EEPROM_Write_data_+0
	CALL       _EEPROM_Write+0
;TP_memory.c,64 :: 		++indice;
	INCF       Data_Eeprom_Write_indice_L0+0, 1
;TP_memory.c,65 :: 		}
	GOTO       L_Data_Eeprom_Write0
L_Data_Eeprom_Write1:
;TP_memory.c,66 :: 		adresse += indice;
	MOVF       Data_Eeprom_Write_indice_L0+0, 0
	ADDWF      _adresse+0, 1
	BTFSC      STATUS+0, 0
	INCF       _adresse+1, 1
	MOVLW      0
	BTFSC      Data_Eeprom_Write_indice_L0+0, 7
	MOVLW      255
	ADDWF      _adresse+1, 1
;TP_memory.c,67 :: 		}
	RETURN
; end of _Data_Eeprom_Write

_Data_Write:

;TP_memory.c,69 :: 		void Data_Write(char * lattitude, char * longitude)
;TP_memory.c,71 :: 		Data_Eeprom_Write(lattitude);
	MOVF       FARG_Data_Write_lattitude+0, 0
	MOVWF      FARG_Data_Eeprom_Write_donnees+0
	CALL       _Data_Eeprom_Write+0
;TP_memory.c,72 :: 		Data_Eeprom_Write(longitude);
	MOVF       FARG_Data_Write_longitude+0, 0
	MOVWF      FARG_Data_Eeprom_Write_donnees+0
	CALL       _Data_Eeprom_Write+0
;TP_memory.c,73 :: 		}
	RETURN
; end of _Data_Write

_Data_Eeprom_Read:

;TP_memory.c,75 :: 		char * Data_Eeprom_Read(int item)
;TP_memory.c,79 :: 		char address = 0;
	CLRF       Data_Eeprom_Read_address_L0+0
;TP_memory.c,80 :: 		address += (item*21);
	MOVF       FARG_Data_Eeprom_Read_item+0, 0
	MOVWF      R0+0
	MOVLW      21
	MOVWF      R4+0
	CALL       _Mul_8x8_U+0
	MOVF       R0+0, 0
	ADDWF      Data_Eeprom_Read_address_L0+0, 1
;TP_memory.c,82 :: 		for (indice = 0; indice < 21; ++indice)
	CLRF       Data_Eeprom_Read_indice_L0+0
	CLRF       Data_Eeprom_Read_indice_L0+1
L_Data_Eeprom_Read2:
	MOVLW      128
	XORWF      Data_Eeprom_Read_indice_L0+1, 0
	MOVWF      R0+0
	MOVLW      128
	SUBWF      R0+0, 0
	BTFSS      STATUS+0, 2
	GOTO       L__Data_Eeprom_Read67
	MOVLW      21
	SUBWF      Data_Eeprom_Read_indice_L0+0, 0
L__Data_Eeprom_Read67:
	BTFSC      STATUS+0, 0
	GOTO       L_Data_Eeprom_Read3
;TP_memory.c,84 :: 		donnees[indice]=EEPROM_Read(address+indice);
	MOVF       Data_Eeprom_Read_indice_L0+0, 0
	ADDLW      Data_Eeprom_Read_donnees_L0+0
	MOVWF      FLOC__Data_Eeprom_Read+0
	MOVF       Data_Eeprom_Read_indice_L0+0, 0
	ADDWF      Data_Eeprom_Read_address_L0+0, 0
	MOVWF      FARG_EEPROM_Read_Address+0
	CALL       _EEPROM_Read+0
	MOVF       FLOC__Data_Eeprom_Read+0, 0
	MOVWF      FSR
	MOVF       R0+0, 0
	MOVWF      INDF+0
;TP_memory.c,85 :: 		Delay_ms(250);
	MOVLW      3
	MOVWF      R11+0
	MOVLW      138
	MOVWF      R12+0
	MOVLW      85
	MOVWF      R13+0
L_Data_Eeprom_Read5:
	DECFSZ     R13+0, 1
	GOTO       L_Data_Eeprom_Read5
	DECFSZ     R12+0, 1
	GOTO       L_Data_Eeprom_Read5
	DECFSZ     R11+0, 1
	GOTO       L_Data_Eeprom_Read5
	NOP
	NOP
;TP_memory.c,82 :: 		for (indice = 0; indice < 21; ++indice)
	INCF       Data_Eeprom_Read_indice_L0+0, 1
	BTFSC      STATUS+0, 2
	INCF       Data_Eeprom_Read_indice_L0+1, 1
;TP_memory.c,86 :: 		}
	GOTO       L_Data_Eeprom_Read2
L_Data_Eeprom_Read3:
;TP_memory.c,87 :: 		donnees[21]='\0';
	CLRF       Data_Eeprom_Read_donnees_L0+21
;TP_memory.c,89 :: 		return donnees;
	MOVLW      Data_Eeprom_Read_donnees_L0+0
	MOVWF      R0+0
;TP_memory.c,90 :: 		}
	RETURN
; end of _Data_Eeprom_Read

_Data_I2C_EEPROM_Write:

;TP_memory.c,94 :: 		void Data_I2C_EEPROM_Write(char * donnees)
;TP_memory.c,96 :: 		short indice=0;
	CLRF       Data_I2C_EEPROM_Write_indice_L0+0
;TP_memory.c,98 :: 		while(donnees[indice] != '\0')
L_Data_I2C_EEPROM_Write6:
	MOVF       Data_I2C_EEPROM_Write_indice_L0+0, 0
	ADDWF      FARG_Data_I2C_EEPROM_Write_donnees+0, 0
	MOVWF      FSR
	MOVF       INDF+0, 0
	XORLW      0
	BTFSC      STATUS+0, 2
	GOTO       L_Data_I2C_EEPROM_Write7
;TP_memory.c,100 :: 		I2C1_Start();              // issue I2C start signal
	CALL       _I2C1_Start+0
;TP_memory.c,101 :: 		I2C1_Wr(0xA0);             // send byte via I2C  (device address + W)
	MOVLW      160
	MOVWF      FARG_I2C1_Wr_data_+0
	CALL       _I2C1_Wr+0
;TP_memory.c,102 :: 		I2C1_Wr(adresse+indice);          // send byte (address of EEPROM location)
	MOVF       Data_I2C_EEPROM_Write_indice_L0+0, 0
	ADDWF      _adresse+0, 0
	MOVWF      FARG_I2C1_Wr_data_+0
	CALL       _I2C1_Wr+0
;TP_memory.c,103 :: 		I2C1_Wr(donnees[indice]);        // send data (data to be written)
	MOVF       Data_I2C_EEPROM_Write_indice_L0+0, 0
	ADDWF      FARG_Data_I2C_EEPROM_Write_donnees+0, 0
	MOVWF      FSR
	MOVF       INDF+0, 0
	MOVWF      FARG_I2C1_Wr_data_+0
	CALL       _I2C1_Wr+0
;TP_memory.c,104 :: 		I2C1_Stop();               // issue I2C stop signal
	CALL       _I2C1_Stop+0
;TP_memory.c,105 :: 		Delay_ms(10);
	MOVLW      26
	MOVWF      R12+0
	MOVLW      248
	MOVWF      R13+0
L_Data_I2C_EEPROM_Write8:
	DECFSZ     R13+0, 1
	GOTO       L_Data_I2C_EEPROM_Write8
	DECFSZ     R12+0, 1
	GOTO       L_Data_I2C_EEPROM_Write8
	NOP
;TP_memory.c,106 :: 		++indice;
	INCF       Data_I2C_EEPROM_Write_indice_L0+0, 1
;TP_memory.c,107 :: 		}
	GOTO       L_Data_I2C_EEPROM_Write6
L_Data_I2C_EEPROM_Write7:
;TP_memory.c,108 :: 		adresse += indice;
	MOVF       Data_I2C_EEPROM_Write_indice_L0+0, 0
	ADDWF      _adresse+0, 1
	BTFSC      STATUS+0, 0
	INCF       _adresse+1, 1
	MOVLW      0
	BTFSC      Data_I2C_EEPROM_Write_indice_L0+0, 7
	MOVLW      255
	ADDWF      _adresse+1, 1
;TP_memory.c,110 :: 		}
	RETURN
; end of _Data_I2C_EEPROM_Write

_I2C_Data_Write:

;TP_memory.c,112 :: 		void I2C_Data_Write(char * lattitude, char * longitude)
;TP_memory.c,114 :: 		Data_I2C_EEPROM_Write(lattitude);
	MOVF       FARG_I2C_Data_Write_lattitude+0, 0
	MOVWF      FARG_Data_I2C_EEPROM_Write_donnees+0
	CALL       _Data_I2C_EEPROM_Write+0
;TP_memory.c,115 :: 		Data_I2C_EEPROM_Write(longitude);
	MOVF       FARG_I2C_Data_Write_longitude+0, 0
	MOVWF      FARG_Data_I2C_EEPROM_Write_donnees+0
	CALL       _Data_I2C_EEPROM_Write+0
;TP_memory.c,116 :: 		}
	RETURN
; end of _I2C_Data_Write

_Data_I2C_EEPROM_Read:

;TP_memory.c,118 :: 		char * Data_I2C_EEPROM_Read(int item)
;TP_memory.c,122 :: 		char address = 0;
	CLRF       Data_I2C_EEPROM_Read_address_L0+0
;TP_memory.c,125 :: 		address += (item*21);
	MOVF       FARG_Data_I2C_EEPROM_Read_item+0, 0
	MOVWF      R0+0
	MOVLW      21
	MOVWF      R4+0
	CALL       _Mul_8x8_U+0
	MOVF       R0+0, 0
	ADDWF      Data_I2C_EEPROM_Read_address_L0+0, 1
;TP_memory.c,127 :: 		for (indice = 0; indice < 21; ++indice)
	CLRF       Data_I2C_EEPROM_Read_indice_L0+0
	CLRF       Data_I2C_EEPROM_Read_indice_L0+1
L_Data_I2C_EEPROM_Read9:
	MOVLW      128
	XORWF      Data_I2C_EEPROM_Read_indice_L0+1, 0
	MOVWF      R0+0
	MOVLW      128
	SUBWF      R0+0, 0
	BTFSS      STATUS+0, 2
	GOTO       L__Data_I2C_EEPROM_Read68
	MOVLW      21
	SUBWF      Data_I2C_EEPROM_Read_indice_L0+0, 0
L__Data_I2C_EEPROM_Read68:
	BTFSC      STATUS+0, 0
	GOTO       L_Data_I2C_EEPROM_Read10
;TP_memory.c,129 :: 		I2C1_Start();              // issue I2C start signal
	CALL       _I2C1_Start+0
;TP_memory.c,130 :: 		I2C1_Wr(0xA0);             // send byte via I2C  (device address + W)
	MOVLW      160
	MOVWF      FARG_I2C1_Wr_data_+0
	CALL       _I2C1_Wr+0
;TP_memory.c,131 :: 		I2C1_Wr(address+indice);          // send byte (data address)
	MOVF       Data_I2C_EEPROM_Read_indice_L0+0, 0
	ADDWF      Data_I2C_EEPROM_Read_address_L0+0, 0
	MOVWF      FARG_I2C1_Wr_data_+0
	CALL       _I2C1_Wr+0
;TP_memory.c,132 :: 		I2C1_Repeated_Start();     // issue I2C signal repeated start
	CALL       _I2C1_Repeated_Start+0
;TP_memory.c,133 :: 		I2C1_Wr(0xA1);             // send byte (device address + R)
	MOVLW      161
	MOVWF      FARG_I2C1_Wr_data_+0
	CALL       _I2C1_Wr+0
;TP_memory.c,134 :: 		car = I2C1_Rd(0u);         // Read the data (NO acknowledge)
	CLRF       FARG_I2C1_Rd_ack+0
	CALL       _I2C1_Rd+0
	MOVF       R0+0, 0
	MOVWF      Data_I2C_EEPROM_Read_car_L0+0
;TP_memory.c,135 :: 		I2C1_Stop();               // issue I2C stop signal
	CALL       _I2C1_Stop+0
;TP_memory.c,136 :: 		Delay_ms(10);
	MOVLW      26
	MOVWF      R12+0
	MOVLW      248
	MOVWF      R13+0
L_Data_I2C_EEPROM_Read12:
	DECFSZ     R13+0, 1
	GOTO       L_Data_I2C_EEPROM_Read12
	DECFSZ     R12+0, 1
	GOTO       L_Data_I2C_EEPROM_Read12
	NOP
;TP_memory.c,137 :: 		donnees[indice]=car;
	MOVF       Data_I2C_EEPROM_Read_indice_L0+0, 0
	ADDLW      Data_I2C_EEPROM_Read_donnees_L0+0
	MOVWF      FSR
	MOVF       Data_I2C_EEPROM_Read_car_L0+0, 0
	MOVWF      INDF+0
;TP_memory.c,127 :: 		for (indice = 0; indice < 21; ++indice)
	INCF       Data_I2C_EEPROM_Read_indice_L0+0, 1
	BTFSC      STATUS+0, 2
	INCF       Data_I2C_EEPROM_Read_indice_L0+1, 1
;TP_memory.c,138 :: 		}
	GOTO       L_Data_I2C_EEPROM_Read9
L_Data_I2C_EEPROM_Read10:
;TP_memory.c,139 :: 		donnees[21]='\0';
	CLRF       Data_I2C_EEPROM_Read_donnees_L0+21
;TP_memory.c,141 :: 		return donnees;
	MOVLW      Data_I2C_EEPROM_Read_donnees_L0+0
	MOVWF      R0+0
;TP_memory.c,142 :: 		}
	RETURN
; end of _Data_I2C_EEPROM_Read

_Data_I2C_24LC32A_EEPROM_Write:

;TP_memory.c,146 :: 		void Data_I2C_24LC32A_EEPROM_Write(char * donnees)
;TP_memory.c,148 :: 		unsigned short indice=0;
	CLRF       Data_I2C_24LC32A_EEPROM_Write_indice_L0+0
;TP_memory.c,153 :: 		while(donnees[indice] != '\0')
L_Data_I2C_24LC32A_EEPROM_Write13:
	MOVF       Data_I2C_24LC32A_EEPROM_Write_indice_L0+0, 0
	ADDWF      FARG_Data_I2C_24LC32A_EEPROM_Write_donnees+0, 0
	MOVWF      FSR
	MOVF       INDF+0, 0
	XORLW      0
	BTFSC      STATUS+0, 2
	GOTO       L_Data_I2C_24LC32A_EEPROM_Write14
;TP_memory.c,155 :: 		address = adresse+indice;
	MOVF       Data_I2C_24LC32A_EEPROM_Write_indice_L0+0, 0
	ADDWF      _adresse+0, 0
	MOVWF      R3+0
	MOVF       _adresse+1, 0
	BTFSC      STATUS+0, 0
	ADDLW      1
	MOVWF      R3+1
;TP_memory.c,157 :: 		low_address = address & 0x00FF;
	MOVLW      255
	ANDWF      R3+0, 0
	MOVWF      Data_I2C_24LC32A_EEPROM_Write_low_address_L0+0
;TP_memory.c,158 :: 		high_address = (address >> 8) & 0x00FF;
	MOVF       R3+1, 0
	MOVWF      R0+0
	CLRF       R0+1
	MOVLW      255
	ANDWF      R0+0, 0
	MOVWF      Data_I2C_24LC32A_EEPROM_Write_high_address_L0+0
;TP_memory.c,160 :: 		I2C1_Start();              // issue I2C start signal
	CALL       _I2C1_Start+0
;TP_memory.c,161 :: 		I2C1_Wr(0xAE);             // send byte via I2C  (device address + W)
	MOVLW      174
	MOVWF      FARG_I2C1_Wr_data_+0
	CALL       _I2C1_Wr+0
;TP_memory.c,162 :: 		I2C1_Wr(high_address);   // send byte (address of EEPROM location)
	MOVF       Data_I2C_24LC32A_EEPROM_Write_high_address_L0+0, 0
	MOVWF      FARG_I2C1_Wr_data_+0
	CALL       _I2C1_Wr+0
;TP_memory.c,163 :: 		I2C1_Wr(low_address);   // send byte (address of EEPROM location)
	MOVF       Data_I2C_24LC32A_EEPROM_Write_low_address_L0+0, 0
	MOVWF      FARG_I2C1_Wr_data_+0
	CALL       _I2C1_Wr+0
;TP_memory.c,164 :: 		I2C1_Wr(donnees[indice]);  // send data (data to be written)
	MOVF       Data_I2C_24LC32A_EEPROM_Write_indice_L0+0, 0
	ADDWF      FARG_Data_I2C_24LC32A_EEPROM_Write_donnees+0, 0
	MOVWF      FSR
	MOVF       INDF+0, 0
	MOVWF      FARG_I2C1_Wr_data_+0
	CALL       _I2C1_Wr+0
;TP_memory.c,165 :: 		I2C1_Stop();               // issue I2C stop signal
	CALL       _I2C1_Stop+0
;TP_memory.c,166 :: 		Delay_ms(10);
	MOVLW      26
	MOVWF      R12+0
	MOVLW      248
	MOVWF      R13+0
L_Data_I2C_24LC32A_EEPROM_Write15:
	DECFSZ     R13+0, 1
	GOTO       L_Data_I2C_24LC32A_EEPROM_Write15
	DECFSZ     R12+0, 1
	GOTO       L_Data_I2C_24LC32A_EEPROM_Write15
	NOP
;TP_memory.c,167 :: 		++indice;
	INCF       Data_I2C_24LC32A_EEPROM_Write_indice_L0+0, 1
;TP_memory.c,168 :: 		}
	GOTO       L_Data_I2C_24LC32A_EEPROM_Write13
L_Data_I2C_24LC32A_EEPROM_Write14:
;TP_memory.c,169 :: 		adresse += indice;
	MOVF       Data_I2C_24LC32A_EEPROM_Write_indice_L0+0, 0
	ADDWF      _adresse+0, 1
	BTFSC      STATUS+0, 0
	INCF       _adresse+1, 1
;TP_memory.c,170 :: 		}
	RETURN
; end of _Data_I2C_24LC32A_EEPROM_Write

_I2C_24LC32A_Data_Write:

;TP_memory.c,172 :: 		void I2C_24LC32A_Data_Write(char * lattitude, char * longitude)
;TP_memory.c,174 :: 		Data_I2C_24LC32A_EEPROM_Write(lattitude);
	MOVF       FARG_I2C_24LC32A_Data_Write_lattitude+0, 0
	MOVWF      FARG_Data_I2C_24LC32A_EEPROM_Write_donnees+0
	CALL       _Data_I2C_24LC32A_EEPROM_Write+0
;TP_memory.c,175 :: 		Data_I2C_24LC32A_EEPROM_Write(longitude);
	MOVF       FARG_I2C_24LC32A_Data_Write_longitude+0, 0
	MOVWF      FARG_Data_I2C_24LC32A_EEPROM_Write_donnees+0
	CALL       _Data_I2C_24LC32A_EEPROM_Write+0
;TP_memory.c,176 :: 		}
	RETURN
; end of _I2C_24LC32A_Data_Write

_Data_I2C_24LC32A_EEPROM_Read:

;TP_memory.c,178 :: 		char * Data_I2C_24LC32A_EEPROM_Read(unsigned int item)
;TP_memory.c,182 :: 		unsigned int address = 0;
	CLRF       Data_I2C_24LC32A_EEPROM_Read_address_L0+0
	CLRF       Data_I2C_24LC32A_EEPROM_Read_address_L0+1
;TP_memory.c,187 :: 		address += (item*21);
	MOVF       FARG_Data_I2C_24LC32A_EEPROM_Read_item+0, 0
	MOVWF      R0+0
	MOVF       FARG_Data_I2C_24LC32A_EEPROM_Read_item+1, 0
	MOVWF      R0+1
	MOVLW      21
	MOVWF      R4+0
	MOVLW      0
	MOVWF      R4+1
	CALL       _Mul_16x16_U+0
	MOVF       R0+0, 0
	ADDWF      Data_I2C_24LC32A_EEPROM_Read_address_L0+0, 1
	MOVF       R0+1, 0
	BTFSC      STATUS+0, 0
	ADDLW      1
	ADDWF      Data_I2C_24LC32A_EEPROM_Read_address_L0+1, 1
;TP_memory.c,189 :: 		for (indice = 0; indice < 21; ++indice)
	CLRF       Data_I2C_24LC32A_EEPROM_Read_indice_L0+0
L_Data_I2C_24LC32A_EEPROM_Read16:
	MOVLW      21
	SUBWF      Data_I2C_24LC32A_EEPROM_Read_indice_L0+0, 0
	BTFSC      STATUS+0, 0
	GOTO       L_Data_I2C_24LC32A_EEPROM_Read17
;TP_memory.c,191 :: 		low_address = address & 0x00FF;
	MOVLW      255
	ANDWF      Data_I2C_24LC32A_EEPROM_Read_address_L0+0, 0
	MOVWF      Data_I2C_24LC32A_EEPROM_Read_low_address_L0+0
;TP_memory.c,192 :: 		high_address = (address >> 8) & 0x00FF;
	MOVF       Data_I2C_24LC32A_EEPROM_Read_address_L0+1, 0
	MOVWF      R0+0
	CLRF       R0+1
	MOVLW      255
	ANDWF      R0+0, 0
	MOVWF      Data_I2C_24LC32A_EEPROM_Read_high_address_L0+0
;TP_memory.c,194 :: 		I2C1_Start();              // issue I2C start signal
	CALL       _I2C1_Start+0
;TP_memory.c,195 :: 		I2C1_Wr(0xAE);             // send byte via I2C  (device address + W)
	MOVLW      174
	MOVWF      FARG_I2C1_Wr_data_+0
	CALL       _I2C1_Wr+0
;TP_memory.c,196 :: 		I2C1_Wr(high_address);     // send byte (data address)
	MOVF       Data_I2C_24LC32A_EEPROM_Read_high_address_L0+0, 0
	MOVWF      FARG_I2C1_Wr_data_+0
	CALL       _I2C1_Wr+0
;TP_memory.c,197 :: 		I2C1_Wr(low_address);      // send byte (data address)
	MOVF       Data_I2C_24LC32A_EEPROM_Read_low_address_L0+0, 0
	MOVWF      FARG_I2C1_Wr_data_+0
	CALL       _I2C1_Wr+0
;TP_memory.c,198 :: 		I2C1_Repeated_Start();     // issue I2C signal repeated start
	CALL       _I2C1_Repeated_Start+0
;TP_memory.c,199 :: 		I2C1_Wr(0xAF);             // send byte (device address + R)
	MOVLW      175
	MOVWF      FARG_I2C1_Wr_data_+0
	CALL       _I2C1_Wr+0
;TP_memory.c,200 :: 		car = I2C1_Rd(0u);         // Read the data (NO acknowledge)
	CLRF       FARG_I2C1_Rd_ack+0
	CALL       _I2C1_Rd+0
	MOVF       R0+0, 0
	MOVWF      Data_I2C_24LC32A_EEPROM_Read_car_L0+0
;TP_memory.c,201 :: 		I2C1_Stop();               // issue I2C stop signal
	CALL       _I2C1_Stop+0
;TP_memory.c,202 :: 		Delay_ms(10);
	MOVLW      26
	MOVWF      R12+0
	MOVLW      248
	MOVWF      R13+0
L_Data_I2C_24LC32A_EEPROM_Read19:
	DECFSZ     R13+0, 1
	GOTO       L_Data_I2C_24LC32A_EEPROM_Read19
	DECFSZ     R12+0, 1
	GOTO       L_Data_I2C_24LC32A_EEPROM_Read19
	NOP
;TP_memory.c,203 :: 		donnees[indice]=car;
	MOVF       Data_I2C_24LC32A_EEPROM_Read_indice_L0+0, 0
	ADDLW      Data_I2C_24LC32A_EEPROM_Read_donnees_L0+0
	MOVWF      FSR
	MOVF       Data_I2C_24LC32A_EEPROM_Read_car_L0+0, 0
	MOVWF      INDF+0
;TP_memory.c,205 :: 		address += 1;
	INCF       Data_I2C_24LC32A_EEPROM_Read_address_L0+0, 1
	BTFSC      STATUS+0, 2
	INCF       Data_I2C_24LC32A_EEPROM_Read_address_L0+1, 1
;TP_memory.c,189 :: 		for (indice = 0; indice < 21; ++indice)
	INCF       Data_I2C_24LC32A_EEPROM_Read_indice_L0+0, 1
;TP_memory.c,206 :: 		}
	GOTO       L_Data_I2C_24LC32A_EEPROM_Read16
L_Data_I2C_24LC32A_EEPROM_Read17:
;TP_memory.c,207 :: 		donnees[21]='\0';
	CLRF       Data_I2C_24LC32A_EEPROM_Read_donnees_L0+21
;TP_memory.c,209 :: 		return donnees;
	MOVLW      Data_I2C_24LC32A_EEPROM_Read_donnees_L0+0
	MOVWF      R0+0
;TP_memory.c,210 :: 		}
	RETURN
; end of _Data_I2C_24LC32A_EEPROM_Read

_initButton:

;TP_memory.c,214 :: 		void initButton()
;TP_memory.c,216 :: 		TRISB = 0x07;
	MOVLW      7
	MOVWF      TRISB+0
;TP_memory.c,217 :: 		}
	RETURN
; end of _initButton

_startButtonAction:

;TP_memory.c,219 :: 		void startButtonAction()
;TP_memory.c,221 :: 		UART1_Write_Text("start\n");
	MOVLW      ?lstr1_TP_memory+0
	MOVWF      FARG_UART1_Write_Text_uart_text+0
	CALL       _UART1_Write_Text+0
;TP_memory.c,222 :: 		}
	RETURN
; end of _startButtonAction

_startButton:

;TP_memory.c,224 :: 		void startButton()
;TP_memory.c,226 :: 		if (Button(&PORTB, 0, 1, 1))
	MOVLW      PORTB+0
	MOVWF      FARG_Button_port+0
	CLRF       FARG_Button_pin+0
	MOVLW      1
	MOVWF      FARG_Button_time_ms+0
	MOVLW      1
	MOVWF      FARG_Button_active_state+0
	CALL       _Button+0
	MOVF       R0+0, 0
	BTFSC      STATUS+0, 2
	GOTO       L_startButton20
;TP_memory.c,228 :: 		start_button = 1;
	BSF        _start_button+0, BitPos(_start_button+0)
;TP_memory.c,229 :: 		}
L_startButton20:
;TP_memory.c,230 :: 		if (start_button && Button(&PORTB, 0, 1, 0))
	BTFSS      _start_button+0, BitPos(_start_button+0)
	GOTO       L_startButton23
	MOVLW      PORTB+0
	MOVWF      FARG_Button_port+0
	CLRF       FARG_Button_pin+0
	MOVLW      1
	MOVWF      FARG_Button_time_ms+0
	CLRF       FARG_Button_active_state+0
	CALL       _Button+0
	MOVF       R0+0, 0
	BTFSC      STATUS+0, 2
	GOTO       L_startButton23
L__startButton59:
;TP_memory.c,232 :: 		start_button = 0;
	BCF        _start_button+0, BitPos(_start_button+0)
;TP_memory.c,233 :: 		startButtonAction();
	CALL       _startButtonAction+0
;TP_memory.c,234 :: 		}
L_startButton23:
;TP_memory.c,235 :: 		}
	RETURN
; end of _startButton

_stopButtonAction:

;TP_memory.c,237 :: 		void stopButtonAction()
;TP_memory.c,239 :: 		UART1_Write_Text("stop\n");
	MOVLW      ?lstr2_TP_memory+0
	MOVWF      FARG_UART1_Write_Text_uart_text+0
	CALL       _UART1_Write_Text+0
;TP_memory.c,240 :: 		}
	RETURN
; end of _stopButtonAction

_stopButton:

;TP_memory.c,242 :: 		void stopButton()
;TP_memory.c,244 :: 		if (Button(&PORTB, 1, 1, 1))
	MOVLW      PORTB+0
	MOVWF      FARG_Button_port+0
	MOVLW      1
	MOVWF      FARG_Button_pin+0
	MOVLW      1
	MOVWF      FARG_Button_time_ms+0
	MOVLW      1
	MOVWF      FARG_Button_active_state+0
	CALL       _Button+0
	MOVF       R0+0, 0
	BTFSC      STATUS+0, 2
	GOTO       L_stopButton24
;TP_memory.c,246 :: 		stop_button = 1;
	BSF        _stop_button+0, BitPos(_stop_button+0)
;TP_memory.c,247 :: 		}
L_stopButton24:
;TP_memory.c,248 :: 		if (stop_button && Button(&PORTB, 1, 1, 0))
	BTFSS      _stop_button+0, BitPos(_stop_button+0)
	GOTO       L_stopButton27
	MOVLW      PORTB+0
	MOVWF      FARG_Button_port+0
	MOVLW      1
	MOVWF      FARG_Button_pin+0
	MOVLW      1
	MOVWF      FARG_Button_time_ms+0
	CLRF       FARG_Button_active_state+0
	CALL       _Button+0
	MOVF       R0+0, 0
	BTFSC      STATUS+0, 2
	GOTO       L_stopButton27
L__stopButton60:
;TP_memory.c,250 :: 		stop_button = 0;
	BCF        _stop_button+0, BitPos(_stop_button+0)
;TP_memory.c,251 :: 		stopButtonAction();
	CALL       _stopButtonAction+0
;TP_memory.c,252 :: 		}
L_stopButton27:
;TP_memory.c,254 :: 		}
	RETURN
; end of _stopButton

_sendButtonAction:

;TP_memory.c,256 :: 		void sendButtonAction()
;TP_memory.c,258 :: 		UART1_Write_Text("send\n");
	MOVLW      ?lstr3_TP_memory+0
	MOVWF      FARG_UART1_Write_Text_uart_text+0
	CALL       _UART1_Write_Text+0
;TP_memory.c,259 :: 		}
	RETURN
; end of _sendButtonAction

_sendButton:

;TP_memory.c,261 :: 		void sendButton()
;TP_memory.c,263 :: 		if (Button(&PORTB, 2, 1, 1))
	MOVLW      PORTB+0
	MOVWF      FARG_Button_port+0
	MOVLW      2
	MOVWF      FARG_Button_pin+0
	MOVLW      1
	MOVWF      FARG_Button_time_ms+0
	MOVLW      1
	MOVWF      FARG_Button_active_state+0
	CALL       _Button+0
	MOVF       R0+0, 0
	BTFSC      STATUS+0, 2
	GOTO       L_sendButton28
;TP_memory.c,265 :: 		send_button = 1;
	BSF        _send_button+0, BitPos(_send_button+0)
;TP_memory.c,266 :: 		}
L_sendButton28:
;TP_memory.c,267 :: 		if (send_button && Button(&PORTB, 2, 1, 0))
	BTFSS      _send_button+0, BitPos(_send_button+0)
	GOTO       L_sendButton31
	MOVLW      PORTB+0
	MOVWF      FARG_Button_port+0
	MOVLW      2
	MOVWF      FARG_Button_pin+0
	MOVLW      1
	MOVWF      FARG_Button_time_ms+0
	CLRF       FARG_Button_active_state+0
	CALL       _Button+0
	MOVF       R0+0, 0
	BTFSC      STATUS+0, 2
	GOTO       L_sendButton31
L__sendButton61:
;TP_memory.c,269 :: 		send_button = 0;
	BCF        _send_button+0, BitPos(_send_button+0)
;TP_memory.c,270 :: 		sendButtonAction();
	CALL       _sendButtonAction+0
;TP_memory.c,271 :: 		}
L_sendButton31:
;TP_memory.c,273 :: 		}
	RETURN
; end of _sendButton

_main:

;TP_memory.c,278 :: 		void main()
;TP_memory.c,280 :: 		char good_trame = 0;
	CLRF       main_good_trame_L0+0
	CLRF       main_g_counter_L0+0
;TP_memory.c,284 :: 		UART1_Init(9600);               // Initialize UART module at 9600 bps
	MOVLW      51
	MOVWF      SPBRG+0
	BSF        TXSTA+0, 2
	CALL       _UART1_Init+0
;TP_memory.c,285 :: 		Delay_ms(100);                  // Wait for UART module to stabilize
	MOVLW      2
	MOVWF      R11+0
	MOVLW      4
	MOVWF      R12+0
	MOVLW      186
	MOVWF      R13+0
L_main32:
	DECFSZ     R13+0, 1
	GOTO       L_main32
	DECFSZ     R12+0, 1
	GOTO       L_main32
	DECFSZ     R11+0, 1
	GOTO       L_main32
	NOP
;TP_memory.c,286 :: 		Lcd_Init();                        // Initialize LCD
	CALL       _Lcd_Init+0
;TP_memory.c,288 :: 		Lcd_Cmd(_LCD_CLEAR);               // Clear display
	MOVLW      1
	MOVWF      FARG_Lcd_Cmd_out_char+0
	CALL       _Lcd_Cmd+0
;TP_memory.c,289 :: 		Lcd_Cmd(_LCD_CURSOR_OFF);          // Cursor off
	MOVLW      12
	MOVWF      FARG_Lcd_Cmd_out_char+0
	CALL       _Lcd_Cmd+0
;TP_memory.c,291 :: 		counter = 0;
	CLRF       _counter+0
	CLRF       _counter+1
;TP_memory.c,293 :: 		I2C1_Init(100000);         // initialize I2C communication
	MOVLW      20
	MOVWF      SSPADD+0
	CALL       _I2C1_Init+0
;TP_memory.c,295 :: 		initButton();
	CALL       _initButton+0
;TP_memory.c,297 :: 		while (1)
L_main33:
;TP_memory.c,299 :: 		startButton();
	CALL       _startButton+0
;TP_memory.c,300 :: 		stopButton();
	CALL       _stopButton+0
;TP_memory.c,301 :: 		sendButton();
	CALL       _sendButton+0
;TP_memory.c,303 :: 		if (UART1_Data_Ready())      // If data is received,
	CALL       _UART1_Data_Ready+0
	MOVF       R0+0, 0
	BTFSC      STATUS+0, 2
	GOTO       L_main35
;TP_memory.c,305 :: 		uart_rd = UART1_Read();     // read the received data,
	CALL       _UART1_Read+0
	MOVF       R0+0, 0
	MOVWF      _uart_rd+0
;TP_memory.c,307 :: 		if (uart_rd == '$')         // if we read a gps frame
	MOVF       R0+0, 0
	XORLW      36
	BTFSS      STATUS+0, 2
	GOTO       L_main36
;TP_memory.c,309 :: 		counter = 0;          // counter initialization
	CLRF       _counter+0
	CLRF       _counter+1
;TP_memory.c,310 :: 		UART1_Write(13);
	MOVLW      13
	MOVWF      FARG_UART1_Write_data_+0
	CALL       _UART1_Write+0
;TP_memory.c,311 :: 		UART1_Write(10);
	MOVLW      10
	MOVWF      FARG_UART1_Write_data_+0
	CALL       _UART1_Write+0
;TP_memory.c,312 :: 		lattitude_ptr = 0;
	CLRF       _lattitude_ptr+0
	CLRF       _lattitude_ptr+1
;TP_memory.c,313 :: 		longitude_ptr = 0;
	CLRF       _longitude_ptr+0
	CLRF       _longitude_ptr+1
;TP_memory.c,314 :: 		g_counter = 0;
	CLRF       main_g_counter_L0+0
;TP_memory.c,315 :: 		good_trame = 0;
	CLRF       main_good_trame_L0+0
;TP_memory.c,316 :: 		}
L_main36:
;TP_memory.c,318 :: 		if( uart_rd == 'G')
	MOVF       _uart_rd+0, 0
	XORLW      71
	BTFSS      STATUS+0, 2
	GOTO       L_main37
;TP_memory.c,320 :: 		++g_counter;
	INCF       main_g_counter_L0+0, 1
;TP_memory.c,321 :: 		}
L_main37:
;TP_memory.c,323 :: 		if (g_counter == 3 && counter == 0)
	MOVF       main_g_counter_L0+0, 0
	XORLW      3
	BTFSS      STATUS+0, 2
	GOTO       L_main40
	MOVLW      0
	XORWF      _counter+1, 0
	BTFSS      STATUS+0, 2
	GOTO       L__main69
	MOVLW      0
	XORWF      _counter+0, 0
L__main69:
	BTFSS      STATUS+0, 2
	GOTO       L_main40
L__main66:
;TP_memory.c,325 :: 		good_trame = 1;
	MOVLW      1
	MOVWF      main_good_trame_L0+0
;TP_memory.c,326 :: 		}
L_main40:
;TP_memory.c,328 :: 		if (uart_rd == ',')        // word separation symbole
	MOVF       _uart_rd+0, 0
	XORLW      44
	BTFSS      STATUS+0, 2
	GOTO       L_main41
;TP_memory.c,330 :: 		++counter;             // update counter
	INCF       _counter+0, 1
	BTFSC      STATUS+0, 2
	INCF       _counter+1, 1
;TP_memory.c,331 :: 		if (counter == 4)        // add space between results
	MOVLW      0
	XORWF      _counter+1, 0
	BTFSS      STATUS+0, 2
	GOTO       L__main70
	MOVLW      4
	XORWF      _counter+0, 0
L__main70:
	BTFSS      STATUS+0, 2
	GOTO       L_main42
;TP_memory.c,333 :: 		UART1_Write(13);
	MOVLW      13
	MOVWF      FARG_UART1_Write_data_+0
	CALL       _UART1_Write+0
;TP_memory.c,334 :: 		UART1_Write(10);
	MOVLW      10
	MOVWF      FARG_UART1_Write_data_+0
	CALL       _UART1_Write+0
;TP_memory.c,335 :: 		}
L_main42:
;TP_memory.c,336 :: 		}
L_main41:
;TP_memory.c,338 :: 		if (good_trame)
	MOVF       main_good_trame_L0+0, 0
	BTFSC      STATUS+0, 2
	GOTO       L_main43
;TP_memory.c,341 :: 		if (counter == 2 && uart_rd != ',')      // lattitude data
	MOVLW      0
	XORWF      _counter+1, 0
	BTFSS      STATUS+0, 2
	GOTO       L__main71
	MOVLW      2
	XORWF      _counter+0, 0
L__main71:
	BTFSS      STATUS+0, 2
	GOTO       L_main46
	MOVF       _uart_rd+0, 0
	XORLW      44
	BTFSC      STATUS+0, 2
	GOTO       L_main46
L__main65:
;TP_memory.c,343 :: 		UART1_Write(uart_rd);
	MOVF       _uart_rd+0, 0
	MOVWF      FARG_UART1_Write_data_+0
	CALL       _UART1_Write+0
;TP_memory.c,344 :: 		lattitude[lattitude_ptr++] = uart_rd;
	MOVF       _lattitude_ptr+0, 0
	ADDLW      _lattitude+0
	MOVWF      FSR
	MOVF       _uart_rd+0, 0
	MOVWF      INDF+0
	INCF       _lattitude_ptr+0, 1
	BTFSC      STATUS+0, 2
	INCF       _lattitude_ptr+1, 1
;TP_memory.c,345 :: 		}
L_main46:
;TP_memory.c,347 :: 		if (counter == 3 && uart_rd != ',')      // lattitude hemisphere indicator (N or S)
	MOVLW      0
	XORWF      _counter+1, 0
	BTFSS      STATUS+0, 2
	GOTO       L__main72
	MOVLW      3
	XORWF      _counter+0, 0
L__main72:
	BTFSS      STATUS+0, 2
	GOTO       L_main49
	MOVF       _uart_rd+0, 0
	XORLW      44
	BTFSC      STATUS+0, 2
	GOTO       L_main49
L__main64:
;TP_memory.c,349 :: 		UART1_Write(uart_rd);
	MOVF       _uart_rd+0, 0
	MOVWF      FARG_UART1_Write_data_+0
	CALL       _UART1_Write+0
;TP_memory.c,350 :: 		lattitude[lattitude_ptr++] = uart_rd;
	MOVF       _lattitude_ptr+0, 0
	ADDLW      _lattitude+0
	MOVWF      FSR
	MOVF       _uart_rd+0, 0
	MOVWF      INDF+0
	INCF       _lattitude_ptr+0, 1
	BTFSC      STATUS+0, 2
	INCF       _lattitude_ptr+1, 1
;TP_memory.c,351 :: 		lattitude[lattitude_ptr++] = '\0';
	MOVF       _lattitude_ptr+0, 0
	ADDLW      _lattitude+0
	MOVWF      FSR
	CLRF       INDF+0
	INCF       _lattitude_ptr+0, 1
	BTFSC      STATUS+0, 2
	INCF       _lattitude_ptr+1, 1
;TP_memory.c,352 :: 		}
L_main49:
;TP_memory.c,354 :: 		if (counter == 4 && uart_rd != ',')      // longitude data
	MOVLW      0
	XORWF      _counter+1, 0
	BTFSS      STATUS+0, 2
	GOTO       L__main73
	MOVLW      4
	XORWF      _counter+0, 0
L__main73:
	BTFSS      STATUS+0, 2
	GOTO       L_main52
	MOVF       _uart_rd+0, 0
	XORLW      44
	BTFSC      STATUS+0, 2
	GOTO       L_main52
L__main63:
;TP_memory.c,356 :: 		UART1_Write(uart_rd);
	MOVF       _uart_rd+0, 0
	MOVWF      FARG_UART1_Write_data_+0
	CALL       _UART1_Write+0
;TP_memory.c,357 :: 		longitude[longitude_ptr++] = uart_rd;
	MOVF       _longitude_ptr+0, 0
	ADDLW      _longitude+0
	MOVWF      FSR
	MOVF       _uart_rd+0, 0
	MOVWF      INDF+0
	INCF       _longitude_ptr+0, 1
	BTFSC      STATUS+0, 2
	INCF       _longitude_ptr+1, 1
;TP_memory.c,358 :: 		}
L_main52:
;TP_memory.c,360 :: 		if (counter == 5 && uart_rd != ',')      //   longitude hemisphere indicator (E or W)
	MOVLW      0
	XORWF      _counter+1, 0
	BTFSS      STATUS+0, 2
	GOTO       L__main74
	MOVLW      5
	XORWF      _counter+0, 0
L__main74:
	BTFSS      STATUS+0, 2
	GOTO       L_main55
	MOVF       _uart_rd+0, 0
	XORLW      44
	BTFSC      STATUS+0, 2
	GOTO       L_main55
L__main62:
;TP_memory.c,362 :: 		UART1_Write(uart_rd);
	MOVF       _uart_rd+0, 0
	MOVWF      FARG_UART1_Write_data_+0
	CALL       _UART1_Write+0
;TP_memory.c,363 :: 		longitude[longitude_ptr++] = uart_rd;
	MOVF       _longitude_ptr+0, 0
	ADDLW      _longitude+0
	MOVWF      FSR
	MOVF       _uart_rd+0, 0
	MOVWF      INDF+0
	INCF       _longitude_ptr+0, 1
	BTFSC      STATUS+0, 2
	INCF       _longitude_ptr+1, 1
;TP_memory.c,364 :: 		longitude[longitude_ptr++] = '\0';
	MOVF       _longitude_ptr+0, 0
	ADDLW      _longitude+0
	MOVWF      FSR
	CLRF       INDF+0
	INCF       _longitude_ptr+0, 1
	BTFSC      STATUS+0, 2
	INCF       _longitude_ptr+1, 1
;TP_memory.c,365 :: 		}
L_main55:
;TP_memory.c,367 :: 		if (uart_rd == '*')
	MOVF       _uart_rd+0, 0
	XORLW      42
	BTFSS      STATUS+0, 2
	GOTO       L_main56
;TP_memory.c,371 :: 		I2C_24LC32A_Data_Write(lattitude,longitude);
	MOVLW      _lattitude+0
	MOVWF      FARG_I2C_24LC32A_Data_Write_lattitude+0
	MOVLW      _longitude+0
	MOVWF      FARG_I2C_24LC32A_Data_Write_longitude+0
	CALL       _I2C_24LC32A_Data_Write+0
;TP_memory.c,372 :: 		Delay_ms(250);
	MOVLW      3
	MOVWF      R11+0
	MOVLW      138
	MOVWF      R12+0
	MOVLW      85
	MOVWF      R13+0
L_main57:
	DECFSZ     R13+0, 1
	GOTO       L_main57
	DECFSZ     R12+0, 1
	GOTO       L_main57
	DECFSZ     R11+0, 1
	GOTO       L_main57
	NOP
	NOP
;TP_memory.c,374 :: 		UART1_Write_Text(Data_I2C_24LC32A_EEPROM_Read(0));
	CLRF       FARG_Data_I2C_24LC32A_EEPROM_Read_item+0
	CLRF       FARG_Data_I2C_24LC32A_EEPROM_Read_item+1
	CALL       _Data_I2C_24LC32A_EEPROM_Read+0
	MOVF       R0+0, 0
	MOVWF      FARG_UART1_Write_Text_uart_text+0
	CALL       _UART1_Write_Text+0
;TP_memory.c,376 :: 		Delay_ms(250);
	MOVLW      3
	MOVWF      R11+0
	MOVLW      138
	MOVWF      R12+0
	MOVLW      85
	MOVWF      R13+0
L_main58:
	DECFSZ     R13+0, 1
	GOTO       L_main58
	DECFSZ     R12+0, 1
	GOTO       L_main58
	DECFSZ     R11+0, 1
	GOTO       L_main58
	NOP
	NOP
;TP_memory.c,378 :: 		UART1_Write_Text(Data_I2C_24LC32A_EEPROM_Read(15));
	MOVLW      15
	MOVWF      FARG_Data_I2C_24LC32A_EEPROM_Read_item+0
	MOVLW      0
	MOVWF      FARG_Data_I2C_24LC32A_EEPROM_Read_item+1
	CALL       _Data_I2C_24LC32A_EEPROM_Read+0
	MOVF       R0+0, 0
	MOVWF      FARG_UART1_Write_Text_uart_text+0
	CALL       _UART1_Write_Text+0
;TP_memory.c,390 :: 		}
L_main56:
;TP_memory.c,391 :: 		}
L_main43:
;TP_memory.c,393 :: 		}
L_main35:
;TP_memory.c,395 :: 		}
	GOTO       L_main33
;TP_memory.c,396 :: 		}
	GOTO       $+0
; end of _main
