
_Data_Eeprom_Write:

;TP_memory.c,65 :: 		void Data_Eeprom_Write(char * donnees)
;TP_memory.c,67 :: 		short indice=0;
	CLRF       Data_Eeprom_Write_indice_L0+0
;TP_memory.c,68 :: 		while(donnees[indice] != '\0')
L_Data_Eeprom_Write0:
	MOVF       Data_Eeprom_Write_indice_L0+0, 0
	ADDWF      FARG_Data_Eeprom_Write_donnees+0, 0
	MOVWF      FSR
	MOVF       INDF+0, 0
	XORLW      0
	BTFSC      STATUS+0, 2
	GOTO       L_Data_Eeprom_Write1
;TP_memory.c,70 :: 		EEPROM_Write(adresse+indice,donnees[indice]);
	MOVF       Data_Eeprom_Write_indice_L0+0, 0
	ADDWF      _adresse+0, 0
	MOVWF      FARG_EEPROM_Write_Address+0
	MOVF       Data_Eeprom_Write_indice_L0+0, 0
	ADDWF      FARG_Data_Eeprom_Write_donnees+0, 0
	MOVWF      FSR
	MOVF       INDF+0, 0
	MOVWF      FARG_EEPROM_Write_data_+0
	CALL       _EEPROM_Write+0
;TP_memory.c,71 :: 		++indice;
	INCF       Data_Eeprom_Write_indice_L0+0, 1
;TP_memory.c,72 :: 		}
	GOTO       L_Data_Eeprom_Write0
L_Data_Eeprom_Write1:
;TP_memory.c,73 :: 		adresse += indice;
	MOVF       Data_Eeprom_Write_indice_L0+0, 0
	ADDWF      _adresse+0, 1
	BTFSC      STATUS+0, 0
	INCF       _adresse+1, 1
	MOVLW      0
	BTFSC      Data_Eeprom_Write_indice_L0+0, 7
	MOVLW      255
	ADDWF      _adresse+1, 1
;TP_memory.c,74 :: 		}
	RETURN
; end of _Data_Eeprom_Write

_Data_Write:

;TP_memory.c,76 :: 		void Data_Write(char * lattitude, char * longitude)
;TP_memory.c,78 :: 		Data_Eeprom_Write(lattitude);
	MOVF       FARG_Data_Write_lattitude+0, 0
	MOVWF      FARG_Data_Eeprom_Write_donnees+0
	CALL       _Data_Eeprom_Write+0
;TP_memory.c,79 :: 		Data_Eeprom_Write(longitude);
	MOVF       FARG_Data_Write_longitude+0, 0
	MOVWF      FARG_Data_Eeprom_Write_donnees+0
	CALL       _Data_Eeprom_Write+0
;TP_memory.c,80 :: 		}
	RETURN
; end of _Data_Write

_Data_Eeprom_Read:

;TP_memory.c,82 :: 		char * Data_Eeprom_Read(int item)
;TP_memory.c,86 :: 		char address = 0;
	CLRF       Data_Eeprom_Read_address_L0+0
;TP_memory.c,87 :: 		address += (item*21);
	MOVF       FARG_Data_Eeprom_Read_item+0, 0
	MOVWF      R0+0
	MOVLW      21
	MOVWF      R4+0
	CALL       _Mul_8x8_U+0
	MOVF       R0+0, 0
	ADDWF      Data_Eeprom_Read_address_L0+0, 1
;TP_memory.c,89 :: 		for (indice = 0; indice < 21; ++indice)
	CLRF       Data_Eeprom_Read_indice_L0+0
	CLRF       Data_Eeprom_Read_indice_L0+1
L_Data_Eeprom_Read2:
	MOVLW      128
	XORWF      Data_Eeprom_Read_indice_L0+1, 0
	MOVWF      R0+0
	MOVLW      128
	SUBWF      R0+0, 0
	BTFSS      STATUS+0, 2
	GOTO       L__Data_Eeprom_Read75
	MOVLW      21
	SUBWF      Data_Eeprom_Read_indice_L0+0, 0
L__Data_Eeprom_Read75:
	BTFSC      STATUS+0, 0
	GOTO       L_Data_Eeprom_Read3
;TP_memory.c,91 :: 		donnees[indice]=EEPROM_Read(address+indice);
	MOVF       Data_Eeprom_Read_indice_L0+0, 0
	ADDLW      Data_Eeprom_Read_donnees_L0+0
	MOVWF      FLOC__Data_Eeprom_Read+0
	MOVF       Data_Eeprom_Read_indice_L0+0, 0
	ADDWF      Data_Eeprom_Read_address_L0+0, 0
	MOVWF      FARG_EEPROM_Read_Address+0
	CALL       _EEPROM_Read+0
	MOVF       FLOC__Data_Eeprom_Read+0, 0
	MOVWF      FSR
	MOVF       R0+0, 0
	MOVWF      INDF+0
;TP_memory.c,92 :: 		Delay_ms(250);
	MOVLW      3
	MOVWF      R11+0
	MOVLW      138
	MOVWF      R12+0
	MOVLW      85
	MOVWF      R13+0
L_Data_Eeprom_Read5:
	DECFSZ     R13+0, 1
	GOTO       L_Data_Eeprom_Read5
	DECFSZ     R12+0, 1
	GOTO       L_Data_Eeprom_Read5
	DECFSZ     R11+0, 1
	GOTO       L_Data_Eeprom_Read5
	NOP
	NOP
;TP_memory.c,89 :: 		for (indice = 0; indice < 21; ++indice)
	INCF       Data_Eeprom_Read_indice_L0+0, 1
	BTFSC      STATUS+0, 2
	INCF       Data_Eeprom_Read_indice_L0+1, 1
;TP_memory.c,93 :: 		}
	GOTO       L_Data_Eeprom_Read2
L_Data_Eeprom_Read3:
;TP_memory.c,94 :: 		donnees[21]='\0';
	CLRF       Data_Eeprom_Read_donnees_L0+21
;TP_memory.c,96 :: 		return donnees;
	MOVLW      Data_Eeprom_Read_donnees_L0+0
	MOVWF      R0+0
;TP_memory.c,97 :: 		}
	RETURN
; end of _Data_Eeprom_Read

_Data_I2C_EEPROM_Write:

;TP_memory.c,101 :: 		void Data_I2C_EEPROM_Write(char * donnees)
;TP_memory.c,103 :: 		short indice=0;
	CLRF       Data_I2C_EEPROM_Write_indice_L0+0
;TP_memory.c,105 :: 		while(donnees[indice] != '\0')
L_Data_I2C_EEPROM_Write6:
	MOVF       Data_I2C_EEPROM_Write_indice_L0+0, 0
	ADDWF      FARG_Data_I2C_EEPROM_Write_donnees+0, 0
	MOVWF      FSR
	MOVF       INDF+0, 0
	XORLW      0
	BTFSC      STATUS+0, 2
	GOTO       L_Data_I2C_EEPROM_Write7
;TP_memory.c,107 :: 		I2C1_Start();              // issue I2C start signal
	CALL       _I2C1_Start+0
;TP_memory.c,108 :: 		I2C1_Wr(0xA0);             // send byte via I2C  (device address + W)
	MOVLW      160
	MOVWF      FARG_I2C1_Wr_data_+0
	CALL       _I2C1_Wr+0
;TP_memory.c,109 :: 		I2C1_Wr(adresse+indice);          // send byte (address of EEPROM location)
	MOVF       Data_I2C_EEPROM_Write_indice_L0+0, 0
	ADDWF      _adresse+0, 0
	MOVWF      FARG_I2C1_Wr_data_+0
	CALL       _I2C1_Wr+0
;TP_memory.c,110 :: 		I2C1_Wr(donnees[indice]);        // send data (data to be written)
	MOVF       Data_I2C_EEPROM_Write_indice_L0+0, 0
	ADDWF      FARG_Data_I2C_EEPROM_Write_donnees+0, 0
	MOVWF      FSR
	MOVF       INDF+0, 0
	MOVWF      FARG_I2C1_Wr_data_+0
	CALL       _I2C1_Wr+0
;TP_memory.c,111 :: 		I2C1_Stop();               // issue I2C stop signal
	CALL       _I2C1_Stop+0
;TP_memory.c,112 :: 		Delay_ms(10);
	MOVLW      26
	MOVWF      R12+0
	MOVLW      248
	MOVWF      R13+0
L_Data_I2C_EEPROM_Write8:
	DECFSZ     R13+0, 1
	GOTO       L_Data_I2C_EEPROM_Write8
	DECFSZ     R12+0, 1
	GOTO       L_Data_I2C_EEPROM_Write8
	NOP
;TP_memory.c,113 :: 		++indice;
	INCF       Data_I2C_EEPROM_Write_indice_L0+0, 1
;TP_memory.c,114 :: 		}
	GOTO       L_Data_I2C_EEPROM_Write6
L_Data_I2C_EEPROM_Write7:
;TP_memory.c,115 :: 		adresse += indice;
	MOVF       Data_I2C_EEPROM_Write_indice_L0+0, 0
	ADDWF      _adresse+0, 1
	BTFSC      STATUS+0, 0
	INCF       _adresse+1, 1
	MOVLW      0
	BTFSC      Data_I2C_EEPROM_Write_indice_L0+0, 7
	MOVLW      255
	ADDWF      _adresse+1, 1
;TP_memory.c,117 :: 		}
	RETURN
; end of _Data_I2C_EEPROM_Write

_I2C_Data_Write:

;TP_memory.c,119 :: 		void I2C_Data_Write(char * lattitude, char * longitude)
;TP_memory.c,121 :: 		Data_I2C_EEPROM_Write(lattitude);
	MOVF       FARG_I2C_Data_Write_lattitude+0, 0
	MOVWF      FARG_Data_I2C_EEPROM_Write_donnees+0
	CALL       _Data_I2C_EEPROM_Write+0
;TP_memory.c,122 :: 		Data_I2C_EEPROM_Write(longitude);
	MOVF       FARG_I2C_Data_Write_longitude+0, 0
	MOVWF      FARG_Data_I2C_EEPROM_Write_donnees+0
	CALL       _Data_I2C_EEPROM_Write+0
;TP_memory.c,123 :: 		}
	RETURN
; end of _I2C_Data_Write

_Data_I2C_EEPROM_Read:

;TP_memory.c,125 :: 		char * Data_I2C_EEPROM_Read(int item)
;TP_memory.c,129 :: 		char address = 0;
	CLRF       Data_I2C_EEPROM_Read_address_L0+0
;TP_memory.c,132 :: 		address += (item*21);
	MOVF       FARG_Data_I2C_EEPROM_Read_item+0, 0
	MOVWF      R0+0
	MOVLW      21
	MOVWF      R4+0
	CALL       _Mul_8x8_U+0
	MOVF       R0+0, 0
	ADDWF      Data_I2C_EEPROM_Read_address_L0+0, 1
;TP_memory.c,134 :: 		for (indice = 0; indice < 21; ++indice)
	CLRF       Data_I2C_EEPROM_Read_indice_L0+0
	CLRF       Data_I2C_EEPROM_Read_indice_L0+1
L_Data_I2C_EEPROM_Read9:
	MOVLW      128
	XORWF      Data_I2C_EEPROM_Read_indice_L0+1, 0
	MOVWF      R0+0
	MOVLW      128
	SUBWF      R0+0, 0
	BTFSS      STATUS+0, 2
	GOTO       L__Data_I2C_EEPROM_Read76
	MOVLW      21
	SUBWF      Data_I2C_EEPROM_Read_indice_L0+0, 0
L__Data_I2C_EEPROM_Read76:
	BTFSC      STATUS+0, 0
	GOTO       L_Data_I2C_EEPROM_Read10
;TP_memory.c,136 :: 		I2C1_Start();              // issue I2C start signal
	CALL       _I2C1_Start+0
;TP_memory.c,137 :: 		I2C1_Wr(0xA0);             // send byte via I2C  (device address + W)
	MOVLW      160
	MOVWF      FARG_I2C1_Wr_data_+0
	CALL       _I2C1_Wr+0
;TP_memory.c,138 :: 		I2C1_Wr(address+indice);          // send byte (data address)
	MOVF       Data_I2C_EEPROM_Read_indice_L0+0, 0
	ADDWF      Data_I2C_EEPROM_Read_address_L0+0, 0
	MOVWF      FARG_I2C1_Wr_data_+0
	CALL       _I2C1_Wr+0
;TP_memory.c,139 :: 		I2C1_Repeated_Start();     // issue I2C signal repeated start
	CALL       _I2C1_Repeated_Start+0
;TP_memory.c,140 :: 		I2C1_Wr(0xA1);             // send byte (device address + R)
	MOVLW      161
	MOVWF      FARG_I2C1_Wr_data_+0
	CALL       _I2C1_Wr+0
;TP_memory.c,141 :: 		car = I2C1_Rd(0u);         // Read the data (NO acknowledge)
	CLRF       FARG_I2C1_Rd_ack+0
	CALL       _I2C1_Rd+0
	MOVF       R0+0, 0
	MOVWF      Data_I2C_EEPROM_Read_car_L0+0
;TP_memory.c,142 :: 		I2C1_Stop();               // issue I2C stop signal
	CALL       _I2C1_Stop+0
;TP_memory.c,143 :: 		Delay_ms(10);
	MOVLW      26
	MOVWF      R12+0
	MOVLW      248
	MOVWF      R13+0
L_Data_I2C_EEPROM_Read12:
	DECFSZ     R13+0, 1
	GOTO       L_Data_I2C_EEPROM_Read12
	DECFSZ     R12+0, 1
	GOTO       L_Data_I2C_EEPROM_Read12
	NOP
;TP_memory.c,144 :: 		donnees[indice]=car;
	MOVF       Data_I2C_EEPROM_Read_indice_L0+0, 0
	ADDLW      Data_I2C_EEPROM_Read_donnees_L0+0
	MOVWF      FSR
	MOVF       Data_I2C_EEPROM_Read_car_L0+0, 0
	MOVWF      INDF+0
;TP_memory.c,134 :: 		for (indice = 0; indice < 21; ++indice)
	INCF       Data_I2C_EEPROM_Read_indice_L0+0, 1
	BTFSC      STATUS+0, 2
	INCF       Data_I2C_EEPROM_Read_indice_L0+1, 1
;TP_memory.c,145 :: 		}
	GOTO       L_Data_I2C_EEPROM_Read9
L_Data_I2C_EEPROM_Read10:
;TP_memory.c,146 :: 		donnees[21]='\0';
	CLRF       Data_I2C_EEPROM_Read_donnees_L0+21
;TP_memory.c,148 :: 		return donnees;
	MOVLW      Data_I2C_EEPROM_Read_donnees_L0+0
	MOVWF      R0+0
;TP_memory.c,149 :: 		}
	RETURN
; end of _Data_I2C_EEPROM_Read

_Data_I2C_24LC32A_EEPROM_Write:

;TP_memory.c,153 :: 		void Data_I2C_24LC32A_EEPROM_Write(char * donnees)
;TP_memory.c,155 :: 		unsigned short indice=0;
	CLRF       Data_I2C_24LC32A_EEPROM_Write_indice_L0+0
;TP_memory.c,160 :: 		while(donnees[indice] != '\0')
L_Data_I2C_24LC32A_EEPROM_Write13:
	MOVF       Data_I2C_24LC32A_EEPROM_Write_indice_L0+0, 0
	ADDWF      FARG_Data_I2C_24LC32A_EEPROM_Write_donnees+0, 0
	MOVWF      FSR
	MOVF       INDF+0, 0
	XORLW      0
	BTFSC      STATUS+0, 2
	GOTO       L_Data_I2C_24LC32A_EEPROM_Write14
;TP_memory.c,162 :: 		address = adresse+indice;
	MOVF       Data_I2C_24LC32A_EEPROM_Write_indice_L0+0, 0
	ADDWF      _adresse+0, 0
	MOVWF      R3+0
	MOVF       _adresse+1, 0
	BTFSC      STATUS+0, 0
	ADDLW      1
	MOVWF      R3+1
;TP_memory.c,164 :: 		low_address = address & 0x00FF;
	MOVLW      255
	ANDWF      R3+0, 0
	MOVWF      Data_I2C_24LC32A_EEPROM_Write_low_address_L0+0
;TP_memory.c,165 :: 		high_address = (address >> 8) & 0x00FF;
	MOVF       R3+1, 0
	MOVWF      R0+0
	CLRF       R0+1
	MOVLW      255
	ANDWF      R0+0, 0
	MOVWF      Data_I2C_24LC32A_EEPROM_Write_high_address_L0+0
;TP_memory.c,167 :: 		I2C1_Start();              // issue I2C start signal
	CALL       _I2C1_Start+0
;TP_memory.c,168 :: 		I2C1_Wr(0xAE);             // send byte via I2C  (device address + W)
	MOVLW      174
	MOVWF      FARG_I2C1_Wr_data_+0
	CALL       _I2C1_Wr+0
;TP_memory.c,169 :: 		I2C1_Wr(high_address);   // send byte (address of EEPROM location)
	MOVF       Data_I2C_24LC32A_EEPROM_Write_high_address_L0+0, 0
	MOVWF      FARG_I2C1_Wr_data_+0
	CALL       _I2C1_Wr+0
;TP_memory.c,170 :: 		I2C1_Wr(low_address);   // send byte (address of EEPROM location)
	MOVF       Data_I2C_24LC32A_EEPROM_Write_low_address_L0+0, 0
	MOVWF      FARG_I2C1_Wr_data_+0
	CALL       _I2C1_Wr+0
;TP_memory.c,171 :: 		I2C1_Wr(donnees[indice]);  // send data (data to be written)
	MOVF       Data_I2C_24LC32A_EEPROM_Write_indice_L0+0, 0
	ADDWF      FARG_Data_I2C_24LC32A_EEPROM_Write_donnees+0, 0
	MOVWF      FSR
	MOVF       INDF+0, 0
	MOVWF      FARG_I2C1_Wr_data_+0
	CALL       _I2C1_Wr+0
;TP_memory.c,172 :: 		I2C1_Stop();               // issue I2C stop signal
	CALL       _I2C1_Stop+0
;TP_memory.c,173 :: 		Delay_ms(10);
	MOVLW      26
	MOVWF      R12+0
	MOVLW      248
	MOVWF      R13+0
L_Data_I2C_24LC32A_EEPROM_Write15:
	DECFSZ     R13+0, 1
	GOTO       L_Data_I2C_24LC32A_EEPROM_Write15
	DECFSZ     R12+0, 1
	GOTO       L_Data_I2C_24LC32A_EEPROM_Write15
	NOP
;TP_memory.c,174 :: 		++indice;
	INCF       Data_I2C_24LC32A_EEPROM_Write_indice_L0+0, 1
;TP_memory.c,175 :: 		}
	GOTO       L_Data_I2C_24LC32A_EEPROM_Write13
L_Data_I2C_24LC32A_EEPROM_Write14:
;TP_memory.c,176 :: 		adresse += indice;
	MOVF       Data_I2C_24LC32A_EEPROM_Write_indice_L0+0, 0
	ADDWF      _adresse+0, 1
	BTFSC      STATUS+0, 0
	INCF       _adresse+1, 1
;TP_memory.c,177 :: 		}
	RETURN
; end of _Data_I2C_24LC32A_EEPROM_Write

_I2C_24LC32A_Data_Write:

;TP_memory.c,179 :: 		void I2C_24LC32A_Data_Write(char * lattitude, char * longitude)
;TP_memory.c,181 :: 		Data_I2C_24LC32A_EEPROM_Write(lattitude);
	MOVF       FARG_I2C_24LC32A_Data_Write_lattitude+0, 0
	MOVWF      FARG_Data_I2C_24LC32A_EEPROM_Write_donnees+0
	CALL       _Data_I2C_24LC32A_EEPROM_Write+0
;TP_memory.c,182 :: 		Data_I2C_24LC32A_EEPROM_Write(longitude);
	MOVF       FARG_I2C_24LC32A_Data_Write_longitude+0, 0
	MOVWF      FARG_Data_I2C_24LC32A_EEPROM_Write_donnees+0
	CALL       _Data_I2C_24LC32A_EEPROM_Write+0
;TP_memory.c,183 :: 		}
	RETURN
; end of _I2C_24LC32A_Data_Write

_Data_I2C_24LC32A_EEPROM_Read:

;TP_memory.c,185 :: 		char * Data_I2C_24LC32A_EEPROM_Read(unsigned int item)
;TP_memory.c,189 :: 		unsigned int address = 0;
	CLRF       Data_I2C_24LC32A_EEPROM_Read_address_L0+0
	CLRF       Data_I2C_24LC32A_EEPROM_Read_address_L0+1
;TP_memory.c,194 :: 		address += (item*21);
	MOVF       FARG_Data_I2C_24LC32A_EEPROM_Read_item+0, 0
	MOVWF      R0+0
	MOVF       FARG_Data_I2C_24LC32A_EEPROM_Read_item+1, 0
	MOVWF      R0+1
	MOVLW      21
	MOVWF      R4+0
	MOVLW      0
	MOVWF      R4+1
	CALL       _Mul_16x16_U+0
	MOVF       R0+0, 0
	ADDWF      Data_I2C_24LC32A_EEPROM_Read_address_L0+0, 1
	MOVF       R0+1, 0
	BTFSC      STATUS+0, 0
	ADDLW      1
	ADDWF      Data_I2C_24LC32A_EEPROM_Read_address_L0+1, 1
;TP_memory.c,196 :: 		for (indice = 0; indice < 21; ++indice)
	CLRF       Data_I2C_24LC32A_EEPROM_Read_indice_L0+0
L_Data_I2C_24LC32A_EEPROM_Read16:
	MOVLW      21
	SUBWF      Data_I2C_24LC32A_EEPROM_Read_indice_L0+0, 0
	BTFSC      STATUS+0, 0
	GOTO       L_Data_I2C_24LC32A_EEPROM_Read17
;TP_memory.c,198 :: 		low_address = address & 0x00FF;
	MOVLW      255
	ANDWF      Data_I2C_24LC32A_EEPROM_Read_address_L0+0, 0
	MOVWF      Data_I2C_24LC32A_EEPROM_Read_low_address_L0+0
;TP_memory.c,199 :: 		high_address = (address >> 8) & 0x00FF;
	MOVF       Data_I2C_24LC32A_EEPROM_Read_address_L0+1, 0
	MOVWF      R0+0
	CLRF       R0+1
	MOVLW      255
	ANDWF      R0+0, 0
	MOVWF      Data_I2C_24LC32A_EEPROM_Read_high_address_L0+0
;TP_memory.c,201 :: 		I2C1_Start();              // issue I2C start signal
	CALL       _I2C1_Start+0
;TP_memory.c,202 :: 		I2C1_Wr(0xAE);             // send byte via I2C  (device address + W)
	MOVLW      174
	MOVWF      FARG_I2C1_Wr_data_+0
	CALL       _I2C1_Wr+0
;TP_memory.c,203 :: 		I2C1_Wr(high_address);     // send byte (data address)
	MOVF       Data_I2C_24LC32A_EEPROM_Read_high_address_L0+0, 0
	MOVWF      FARG_I2C1_Wr_data_+0
	CALL       _I2C1_Wr+0
;TP_memory.c,204 :: 		I2C1_Wr(low_address);      // send byte (data address)
	MOVF       Data_I2C_24LC32A_EEPROM_Read_low_address_L0+0, 0
	MOVWF      FARG_I2C1_Wr_data_+0
	CALL       _I2C1_Wr+0
;TP_memory.c,205 :: 		I2C1_Repeated_Start();     // issue I2C signal repeated start
	CALL       _I2C1_Repeated_Start+0
;TP_memory.c,206 :: 		I2C1_Wr(0xAF);             // send byte (device address + R)
	MOVLW      175
	MOVWF      FARG_I2C1_Wr_data_+0
	CALL       _I2C1_Wr+0
;TP_memory.c,207 :: 		car = I2C1_Rd(0u);         // Read the data (NO acknowledge)
	CLRF       FARG_I2C1_Rd_ack+0
	CALL       _I2C1_Rd+0
	MOVF       R0+0, 0
	MOVWF      Data_I2C_24LC32A_EEPROM_Read_car_L0+0
;TP_memory.c,208 :: 		I2C1_Stop();               // issue I2C stop signal
	CALL       _I2C1_Stop+0
;TP_memory.c,209 :: 		Delay_ms(10);
	MOVLW      26
	MOVWF      R12+0
	MOVLW      248
	MOVWF      R13+0
L_Data_I2C_24LC32A_EEPROM_Read19:
	DECFSZ     R13+0, 1
	GOTO       L_Data_I2C_24LC32A_EEPROM_Read19
	DECFSZ     R12+0, 1
	GOTO       L_Data_I2C_24LC32A_EEPROM_Read19
	NOP
;TP_memory.c,210 :: 		donnees[indice]=car;
	MOVF       Data_I2C_24LC32A_EEPROM_Read_indice_L0+0, 0
	ADDLW      Data_I2C_24LC32A_EEPROM_Read_donnees_L0+0
	MOVWF      FSR
	MOVF       Data_I2C_24LC32A_EEPROM_Read_car_L0+0, 0
	MOVWF      INDF+0
;TP_memory.c,212 :: 		address += 1;
	INCF       Data_I2C_24LC32A_EEPROM_Read_address_L0+0, 1
	BTFSC      STATUS+0, 2
	INCF       Data_I2C_24LC32A_EEPROM_Read_address_L0+1, 1
;TP_memory.c,196 :: 		for (indice = 0; indice < 21; ++indice)
	INCF       Data_I2C_24LC32A_EEPROM_Read_indice_L0+0, 1
;TP_memory.c,213 :: 		}
	GOTO       L_Data_I2C_24LC32A_EEPROM_Read16
L_Data_I2C_24LC32A_EEPROM_Read17:
;TP_memory.c,214 :: 		donnees[21]='\0';
	CLRF       Data_I2C_24LC32A_EEPROM_Read_donnees_L0+21
;TP_memory.c,216 :: 		return donnees;
	MOVLW      Data_I2C_24LC32A_EEPROM_Read_donnees_L0+0
	MOVWF      R0+0
;TP_memory.c,217 :: 		}
	RETURN
; end of _Data_I2C_24LC32A_EEPROM_Read

_initButton:

;TP_memory.c,221 :: 		void initButton()
;TP_memory.c,223 :: 		TRISB = 0x0B;
	MOVLW      11
	MOVWF      TRISB+0
;TP_memory.c,224 :: 		start_button = 0;
	BCF        _start_button+0, BitPos(_start_button+0)
;TP_memory.c,225 :: 		stop_button = 0;
	BCF        _stop_button+0, BitPos(_stop_button+0)
;TP_memory.c,226 :: 		send_button = 0;
	BCF        _send_button+0, BitPos(_send_button+0)
;TP_memory.c,227 :: 		}
	RETURN
; end of _initButton

_startButtonAction:

;TP_memory.c,229 :: 		void startButtonAction()
;TP_memory.c,231 :: 		UART1_Write_Text("Start\n");
	MOVLW      ?lstr1_TP_memory+0
	MOVWF      FARG_UART1_Write_Text_uart_text+0
	CALL       _UART1_Write_Text+0
;TP_memory.c,232 :: 		listen = 1;
	BSF        _listen+0, BitPos(_listen+0)
;TP_memory.c,233 :: 		startButtonFlag = 0;
	BCF        _startButtonFlag+0, BitPos(_startButtonFlag+0)
;TP_memory.c,234 :: 		}
	RETURN
; end of _startButtonAction

_startButton:

;TP_memory.c,236 :: 		void startButton()
;TP_memory.c,238 :: 		if (Button(&PORTB, 0, 1, 1))
	MOVLW      PORTB+0
	MOVWF      FARG_Button_port+0
	CLRF       FARG_Button_pin+0
	MOVLW      1
	MOVWF      FARG_Button_time_ms+0
	MOVLW      1
	MOVWF      FARG_Button_active_state+0
	CALL       _Button+0
	MOVF       R0+0, 0
	BTFSC      STATUS+0, 2
	GOTO       L_startButton20
;TP_memory.c,240 :: 		start_button = 1;
	BSF        _start_button+0, BitPos(_start_button+0)
;TP_memory.c,241 :: 		}
L_startButton20:
;TP_memory.c,242 :: 		if (start_button && Button(&PORTB, 0, 1, 0))
	BTFSS      _start_button+0, BitPos(_start_button+0)
	GOTO       L_startButton23
	MOVLW      PORTB+0
	MOVWF      FARG_Button_port+0
	CLRF       FARG_Button_pin+0
	MOVLW      1
	MOVWF      FARG_Button_time_ms+0
	CLRF       FARG_Button_active_state+0
	CALL       _Button+0
	MOVF       R0+0, 0
	BTFSC      STATUS+0, 2
	GOTO       L_startButton23
L__startButton67:
;TP_memory.c,244 :: 		start_button = 0;
	BCF        _start_button+0, BitPos(_start_button+0)
;TP_memory.c,245 :: 		startButtonAction();
	CALL       _startButtonAction+0
;TP_memory.c,246 :: 		}
L_startButton23:
;TP_memory.c,247 :: 		}
	RETURN
; end of _startButton

_stopButtonAction:

;TP_memory.c,249 :: 		void stopButtonAction()
;TP_memory.c,251 :: 		UART1_Write_Text("Stop\n");
	MOVLW      ?lstr2_TP_memory+0
	MOVWF      FARG_UART1_Write_Text_uart_text+0
	CALL       _UART1_Write_Text+0
;TP_memory.c,252 :: 		listen = 0;
	BCF        _listen+0, BitPos(_listen+0)
;TP_memory.c,253 :: 		stopButtonFlag = 0;
	BCF        _stopButtonFlag+0, BitPos(_stopButtonFlag+0)
;TP_memory.c,254 :: 		}
	RETURN
; end of _stopButtonAction

_stopButton:

;TP_memory.c,256 :: 		void stopButton()
;TP_memory.c,258 :: 		if (Button(&PORTB, 1, 1, 1))
	MOVLW      PORTB+0
	MOVWF      FARG_Button_port+0
	MOVLW      1
	MOVWF      FARG_Button_pin+0
	MOVLW      1
	MOVWF      FARG_Button_time_ms+0
	MOVLW      1
	MOVWF      FARG_Button_active_state+0
	CALL       _Button+0
	MOVF       R0+0, 0
	BTFSC      STATUS+0, 2
	GOTO       L_stopButton24
;TP_memory.c,260 :: 		stop_button = 1;
	BSF        _stop_button+0, BitPos(_stop_button+0)
;TP_memory.c,261 :: 		}
L_stopButton24:
;TP_memory.c,262 :: 		if (stop_button && Button(&PORTB, 1, 1, 0))
	BTFSS      _stop_button+0, BitPos(_stop_button+0)
	GOTO       L_stopButton27
	MOVLW      PORTB+0
	MOVWF      FARG_Button_port+0
	MOVLW      1
	MOVWF      FARG_Button_pin+0
	MOVLW      1
	MOVWF      FARG_Button_time_ms+0
	CLRF       FARG_Button_active_state+0
	CALL       _Button+0
	MOVF       R0+0, 0
	BTFSC      STATUS+0, 2
	GOTO       L_stopButton27
L__stopButton68:
;TP_memory.c,264 :: 		stop_button = 0;
	BCF        _stop_button+0, BitPos(_stop_button+0)
;TP_memory.c,265 :: 		stopButtonAction();
	CALL       _stopButtonAction+0
;TP_memory.c,266 :: 		}
L_stopButton27:
;TP_memory.c,268 :: 		}
	RETURN
; end of _stopButton

_sendButtonAction:

;TP_memory.c,270 :: 		void sendButtonAction()
;TP_memory.c,272 :: 		UART1_Write_Text("Send\n");
	MOVLW      ?lstr3_TP_memory+0
	MOVWF      FARG_UART1_Write_Text_uart_text+0
	CALL       _UART1_Write_Text+0
;TP_memory.c,273 :: 		sendButtonFlag = 0;
	BCF        _sendButtonFlag+0, BitPos(_sendButtonFlag+0)
;TP_memory.c,274 :: 		}
	RETURN
; end of _sendButtonAction

_sendButton:

;TP_memory.c,276 :: 		void sendButton()
;TP_memory.c,278 :: 		if (Button(&PORTB, 3, 1, 1))
	MOVLW      PORTB+0
	MOVWF      FARG_Button_port+0
	MOVLW      3
	MOVWF      FARG_Button_pin+0
	MOVLW      1
	MOVWF      FARG_Button_time_ms+0
	MOVLW      1
	MOVWF      FARG_Button_active_state+0
	CALL       _Button+0
	MOVF       R0+0, 0
	BTFSC      STATUS+0, 2
	GOTO       L_sendButton28
;TP_memory.c,280 :: 		send_button = 1;
	BSF        _send_button+0, BitPos(_send_button+0)
;TP_memory.c,281 :: 		}
L_sendButton28:
;TP_memory.c,282 :: 		if (send_button && Button(&PORTB, 3, 1, 0))
	BTFSS      _send_button+0, BitPos(_send_button+0)
	GOTO       L_sendButton31
	MOVLW      PORTB+0
	MOVWF      FARG_Button_port+0
	MOVLW      3
	MOVWF      FARG_Button_pin+0
	MOVLW      1
	MOVWF      FARG_Button_time_ms+0
	CLRF       FARG_Button_active_state+0
	CALL       _Button+0
	MOVF       R0+0, 0
	BTFSC      STATUS+0, 2
	GOTO       L_sendButton31
L__sendButton69:
;TP_memory.c,284 :: 		send_button = 0;
	BCF        _send_button+0, BitPos(_send_button+0)
;TP_memory.c,285 :: 		sendButtonAction();
	CALL       _sendButtonAction+0
;TP_memory.c,286 :: 		}
L_sendButton31:
;TP_memory.c,288 :: 		}
	RETURN
; end of _sendButton

_interrupt_configuration:

;TP_memory.c,292 :: 		void interrupt_configuration()
;TP_memory.c,294 :: 		PORTB=0;
	CLRF       PORTB+0
;TP_memory.c,295 :: 		TRISB = 0xF0; // Initialisation du port B en entree pour RB7, RB6, RB5 et RB4
	MOVLW      240
	MOVWF      TRISB+0
;TP_memory.c,297 :: 		INTCON.RBIE=1;     // Autorise l'IT du RB
	BSF        INTCON+0, 3
;TP_memory.c,298 :: 		INTCON.GIE=1;      // Autorisation generale des IT
	BSF        INTCON+0, 7
;TP_memory.c,299 :: 		INTCON.RBIF=0; 	   // Efface le flag d'IT sur RB cf p20 datasheet du 16F877A
	BCF        INTCON+0, 0
;TP_memory.c,301 :: 		startButtonFlag = 0;
	BCF        _startButtonFlag+0, BitPos(_startButtonFlag+0)
;TP_memory.c,302 :: 		stopButtonFlag = 0;
	BCF        _stopButtonFlag+0, BitPos(_stopButtonFlag+0)
;TP_memory.c,303 :: 		sendButtonFlag = 0;
	BCF        _sendButtonFlag+0, BitPos(_sendButtonFlag+0)
;TP_memory.c,304 :: 		}
	RETURN
; end of _interrupt_configuration

_interrupt:
	MOVWF      R15+0
	SWAPF      STATUS+0, 0
	CLRF       STATUS+0
	MOVWF      ___saveSTATUS+0
	MOVF       PCLATH+0, 0
	MOVWF      ___savePCLATH+0
	CLRF       PCLATH+0

;TP_memory.c,306 :: 		void interrupt()
;TP_memory.c,310 :: 		if (intcon.RBIF == 1)  //Au moins une des entrées RB7 à RB4 a changé d'état
	BTFSS      INTCON+0, 0
	GOTO       L_interrupt32
;TP_memory.c,312 :: 		portbValue = PORTB;
	MOVF       PORTB+0, 0
	MOVWF      R1+0
;TP_memory.c,314 :: 		if (portbValue == 0x80)    // RB7 appuyé
	MOVF       R1+0, 0
	XORLW      128
	BTFSS      STATUS+0, 2
	GOTO       L_interrupt33
;TP_memory.c,316 :: 		startButtonFlag = 1;
	BSF        _startButtonFlag+0, BitPos(_startButtonFlag+0)
;TP_memory.c,317 :: 		}
	GOTO       L_interrupt34
L_interrupt33:
;TP_memory.c,318 :: 		else if (portbValue == 0x40)     // RB6 appuyé
	MOVF       R1+0, 0
	XORLW      64
	BTFSS      STATUS+0, 2
	GOTO       L_interrupt35
;TP_memory.c,320 :: 		stopButtonFlag  = 1;
	BSF        _stopButtonFlag+0, BitPos(_stopButtonFlag+0)
;TP_memory.c,321 :: 		}
	GOTO       L_interrupt36
L_interrupt35:
;TP_memory.c,322 :: 		else if (portbValue == 0x20)// RB5 appuyé
	MOVF       R1+0, 0
	XORLW      32
	BTFSS      STATUS+0, 2
	GOTO       L_interrupt37
;TP_memory.c,324 :: 		sendButtonFlag  = 1;
	BSF        _sendButtonFlag+0, BitPos(_sendButtonFlag+0)
;TP_memory.c,325 :: 		}
L_interrupt37:
L_interrupt36:
L_interrupt34:
;TP_memory.c,326 :: 		}
L_interrupt32:
;TP_memory.c,327 :: 		INTCON.RBIF=0; // Efface le flag d'IT sur RB
	BCF        INTCON+0, 0
;TP_memory.c,329 :: 		}
L__interrupt77:
	MOVF       ___savePCLATH+0, 0
	MOVWF      PCLATH+0
	SWAPF      ___saveSTATUS+0, 0
	MOVWF      STATUS+0
	SWAPF      R15+0, 1
	SWAPF      R15+0, 0
	RETFIE
; end of _interrupt

_main:

;TP_memory.c,333 :: 		void main()
;TP_memory.c,335 :: 		char good_trame = 0;
	CLRF       main_good_trame_L0+0
	CLRF       main_g_counter_L0+0
;TP_memory.c,341 :: 		UART1_Init(9600);               // Initialize UART module at 9600 bps
	MOVLW      51
	MOVWF      SPBRG+0
	BSF        TXSTA+0, 2
	CALL       _UART1_Init+0
;TP_memory.c,342 :: 		Delay_ms(100);                  // Wait for UART module to stabilize
	MOVLW      2
	MOVWF      R11+0
	MOVLW      4
	MOVWF      R12+0
	MOVLW      186
	MOVWF      R13+0
L_main38:
	DECFSZ     R13+0, 1
	GOTO       L_main38
	DECFSZ     R12+0, 1
	GOTO       L_main38
	DECFSZ     R11+0, 1
	GOTO       L_main38
	NOP
;TP_memory.c,343 :: 		Lcd_Init();                        // Initialize LCD
	CALL       _Lcd_Init+0
;TP_memory.c,345 :: 		Lcd_Cmd(_LCD_CLEAR);               // Clear display
	MOVLW      1
	MOVWF      FARG_Lcd_Cmd_out_char+0
	CALL       _Lcd_Cmd+0
;TP_memory.c,346 :: 		Lcd_Cmd(_LCD_CURSOR_OFF);          // Cursor off
	MOVLW      12
	MOVWF      FARG_Lcd_Cmd_out_char+0
	CALL       _Lcd_Cmd+0
;TP_memory.c,348 :: 		counter = 0;
	CLRF       _counter+0
	CLRF       _counter+1
;TP_memory.c,350 :: 		I2C1_Init(100000);         // initialize I2C communication
	MOVLW      20
	MOVWF      SSPADD+0
	CALL       _I2C1_Init+0
;TP_memory.c,352 :: 		interrupt_configuration();
	CALL       _interrupt_configuration+0
;TP_memory.c,356 :: 		UART1_Write_Text("Start\n");
	MOVLW      ?lstr4_TP_memory+0
	MOVWF      FARG_UART1_Write_Text_uart_text+0
	CALL       _UART1_Write_Text+0
;TP_memory.c,358 :: 		listen = 0;
	BCF        _listen+0, BitPos(_listen+0)
;TP_memory.c,360 :: 		while (1)
L_main39:
;TP_memory.c,366 :: 		if (startButtonFlag) startButtonAction();
	BTFSS      _startButtonFlag+0, BitPos(_startButtonFlag+0)
	GOTO       L_main41
	CALL       _startButtonAction+0
L_main41:
;TP_memory.c,367 :: 		if (stopButtonFlag) stopButtonAction();
	BTFSS      _stopButtonFlag+0, BitPos(_stopButtonFlag+0)
	GOTO       L_main42
	CALL       _stopButtonAction+0
L_main42:
;TP_memory.c,368 :: 		if (sendButtonFlag) sendButtonAction();
	BTFSS      _sendButtonFlag+0, BitPos(_sendButtonFlag+0)
	GOTO       L_main43
	CALL       _sendButtonAction+0
L_main43:
;TP_memory.c,370 :: 		if (listen)
	BTFSS      _listen+0, BitPos(_listen+0)
	GOTO       L_main44
;TP_memory.c,373 :: 		if (UART1_Data_Ready())      // If data is received,
	CALL       _UART1_Data_Ready+0
	MOVF       R0+0, 0
	BTFSC      STATUS+0, 2
	GOTO       L_main45
;TP_memory.c,375 :: 		uart_rd = UART1_Read();     // read the received data,
	CALL       _UART1_Read+0
	MOVF       R0+0, 0
	MOVWF      _uart_rd+0
;TP_memory.c,377 :: 		if (uart_rd == '$')         // if we read a gps frame
	MOVF       R0+0, 0
	XORLW      36
	BTFSS      STATUS+0, 2
	GOTO       L_main46
;TP_memory.c,379 :: 		counter = 0;          // counter initialization
	CLRF       _counter+0
	CLRF       _counter+1
;TP_memory.c,380 :: 		lattitude_ptr = 0;
	CLRF       _lattitude_ptr+0
	CLRF       _lattitude_ptr+1
;TP_memory.c,381 :: 		longitude_ptr = 0;
	CLRF       _longitude_ptr+0
	CLRF       _longitude_ptr+1
;TP_memory.c,382 :: 		g_counter = 0;
	CLRF       main_g_counter_L0+0
;TP_memory.c,383 :: 		good_trame = 0;
	CLRF       main_good_trame_L0+0
;TP_memory.c,384 :: 		}
L_main46:
;TP_memory.c,386 :: 		if( uart_rd == 'G')
	MOVF       _uart_rd+0, 0
	XORLW      71
	BTFSS      STATUS+0, 2
	GOTO       L_main47
;TP_memory.c,388 :: 		++g_counter;
	INCF       main_g_counter_L0+0, 1
;TP_memory.c,389 :: 		}
L_main47:
;TP_memory.c,391 :: 		if (g_counter == 3 && counter == 0)
	MOVF       main_g_counter_L0+0, 0
	XORLW      3
	BTFSS      STATUS+0, 2
	GOTO       L_main50
	MOVLW      0
	XORWF      _counter+1, 0
	BTFSS      STATUS+0, 2
	GOTO       L__main78
	MOVLW      0
	XORWF      _counter+0, 0
L__main78:
	BTFSS      STATUS+0, 2
	GOTO       L_main50
L__main74:
;TP_memory.c,393 :: 		good_trame = 1;
	MOVLW      1
	MOVWF      main_good_trame_L0+0
;TP_memory.c,394 :: 		}
L_main50:
;TP_memory.c,396 :: 		if (uart_rd == ',')        // word separation symbole
	MOVF       _uart_rd+0, 0
	XORLW      44
	BTFSS      STATUS+0, 2
	GOTO       L_main51
;TP_memory.c,398 :: 		++counter;
	INCF       _counter+0, 1
	BTFSC      STATUS+0, 2
	INCF       _counter+1, 1
;TP_memory.c,399 :: 		}
L_main51:
;TP_memory.c,401 :: 		if (good_trame)
	MOVF       main_good_trame_L0+0, 0
	BTFSC      STATUS+0, 2
	GOTO       L_main52
;TP_memory.c,404 :: 		if (counter == 2 && uart_rd != ',')      // lattitude data
	MOVLW      0
	XORWF      _counter+1, 0
	BTFSS      STATUS+0, 2
	GOTO       L__main79
	MOVLW      2
	XORWF      _counter+0, 0
L__main79:
	BTFSS      STATUS+0, 2
	GOTO       L_main55
	MOVF       _uart_rd+0, 0
	XORLW      44
	BTFSC      STATUS+0, 2
	GOTO       L_main55
L__main73:
;TP_memory.c,406 :: 		lattitude[lattitude_ptr++] = uart_rd;
	MOVF       _lattitude_ptr+0, 0
	ADDLW      _lattitude+0
	MOVWF      FSR
	MOVF       _uart_rd+0, 0
	MOVWF      INDF+0
	INCF       _lattitude_ptr+0, 1
	BTFSC      STATUS+0, 2
	INCF       _lattitude_ptr+1, 1
;TP_memory.c,407 :: 		}
L_main55:
;TP_memory.c,409 :: 		if (counter == 3 && uart_rd != ',')      // lattitude hemisphere indicator (N or S)
	MOVLW      0
	XORWF      _counter+1, 0
	BTFSS      STATUS+0, 2
	GOTO       L__main80
	MOVLW      3
	XORWF      _counter+0, 0
L__main80:
	BTFSS      STATUS+0, 2
	GOTO       L_main58
	MOVF       _uart_rd+0, 0
	XORLW      44
	BTFSC      STATUS+0, 2
	GOTO       L_main58
L__main72:
;TP_memory.c,411 :: 		lattitude[lattitude_ptr++] = uart_rd;
	MOVF       _lattitude_ptr+0, 0
	ADDLW      _lattitude+0
	MOVWF      FSR
	MOVF       _uart_rd+0, 0
	MOVWF      INDF+0
	INCF       _lattitude_ptr+0, 1
	BTFSC      STATUS+0, 2
	INCF       _lattitude_ptr+1, 1
;TP_memory.c,412 :: 		lattitude[lattitude_ptr++] = '\0';
	MOVF       _lattitude_ptr+0, 0
	ADDLW      _lattitude+0
	MOVWF      FSR
	CLRF       INDF+0
	INCF       _lattitude_ptr+0, 1
	BTFSC      STATUS+0, 2
	INCF       _lattitude_ptr+1, 1
;TP_memory.c,413 :: 		}
L_main58:
;TP_memory.c,415 :: 		if (counter == 4 && uart_rd != ',')      // longitude data
	MOVLW      0
	XORWF      _counter+1, 0
	BTFSS      STATUS+0, 2
	GOTO       L__main81
	MOVLW      4
	XORWF      _counter+0, 0
L__main81:
	BTFSS      STATUS+0, 2
	GOTO       L_main61
	MOVF       _uart_rd+0, 0
	XORLW      44
	BTFSC      STATUS+0, 2
	GOTO       L_main61
L__main71:
;TP_memory.c,417 :: 		longitude[longitude_ptr++] = uart_rd;
	MOVF       _longitude_ptr+0, 0
	ADDLW      _longitude+0
	MOVWF      FSR
	MOVF       _uart_rd+0, 0
	MOVWF      INDF+0
	INCF       _longitude_ptr+0, 1
	BTFSC      STATUS+0, 2
	INCF       _longitude_ptr+1, 1
;TP_memory.c,418 :: 		}
L_main61:
;TP_memory.c,420 :: 		if (counter == 5 && uart_rd != ',')      //   longitude hemisphere indicator (E or W)
	MOVLW      0
	XORWF      _counter+1, 0
	BTFSS      STATUS+0, 2
	GOTO       L__main82
	MOVLW      5
	XORWF      _counter+0, 0
L__main82:
	BTFSS      STATUS+0, 2
	GOTO       L_main64
	MOVF       _uart_rd+0, 0
	XORLW      44
	BTFSC      STATUS+0, 2
	GOTO       L_main64
L__main70:
;TP_memory.c,422 :: 		longitude[longitude_ptr++] = uart_rd;
	MOVF       _longitude_ptr+0, 0
	ADDLW      _longitude+0
	MOVWF      FSR
	MOVF       _uart_rd+0, 0
	MOVWF      INDF+0
	INCF       _longitude_ptr+0, 1
	BTFSC      STATUS+0, 2
	INCF       _longitude_ptr+1, 1
;TP_memory.c,423 :: 		longitude[longitude_ptr++] = '\0';
	MOVF       _longitude_ptr+0, 0
	ADDLW      _longitude+0
	MOVWF      FSR
	CLRF       INDF+0
	INCF       _longitude_ptr+0, 1
	BTFSC      STATUS+0, 2
	INCF       _longitude_ptr+1, 1
;TP_memory.c,424 :: 		}
L_main64:
;TP_memory.c,426 :: 		if (uart_rd == '*')
	MOVF       _uart_rd+0, 0
	XORLW      42
	BTFSS      STATUS+0, 2
	GOTO       L_main65
;TP_memory.c,430 :: 		I2C_24LC32A_Data_Write(lattitude,longitude);
	MOVLW      _lattitude+0
	MOVWF      FARG_I2C_24LC32A_Data_Write_lattitude+0
	MOVLW      _longitude+0
	MOVWF      FARG_I2C_24LC32A_Data_Write_longitude+0
	CALL       _I2C_24LC32A_Data_Write+0
;TP_memory.c,431 :: 		UART1_Write_Text(lattitude);
	MOVLW      _lattitude+0
	MOVWF      FARG_UART1_Write_Text_uart_text+0
	CALL       _UART1_Write_Text+0
;TP_memory.c,432 :: 		Delay_ms(4750);
	MOVLW      49
	MOVWF      R11+0
	MOVLW      50
	MOVWF      R12+0
	MOVLW      135
	MOVWF      R13+0
L_main66:
	DECFSZ     R13+0, 1
	GOTO       L_main66
	DECFSZ     R12+0, 1
	GOTO       L_main66
	DECFSZ     R11+0, 1
	GOTO       L_main66
;TP_memory.c,443 :: 		}
L_main65:
;TP_memory.c,444 :: 		}
L_main52:
;TP_memory.c,446 :: 		}
L_main45:
;TP_memory.c,448 :: 		}
L_main44:
;TP_memory.c,450 :: 		}
	GOTO       L_main39
;TP_memory.c,451 :: 		}
	GOTO       $+0
; end of _main
